Warning[w15]: Predefined type sizing mismatch between modules RDKRL78_spi ( C:\Users\Steve\Dropbox\Kiln\CustomerProjects\RenesasDemo\Factory_Demo_Whisker\YRDKRL78G14\Debug\Obj\RDKRL78_spi.r87 ) and ST7579_LCD ( C:\Users\Steve\Dropbox\Kiln\CustomerProjects\RenesasDemo\Factory_Demo_Whisker\YRDKRL78G14\drv\Glyph\RL78GlyphLib_Debug.r87 )
Warning[w15]: Predefined type sizing mismatch between modules RDKRL78_spi ( C:\Users\Steve\Dropbox\Kiln\CustomerProjects\RenesasDemo\Factory_Demo_Whisker\YRDKRL78G14\Debug\Obj\RDKRL78_spi.r87 ) and ST7579_LCD ( C:\Users\Steve\Dropbox\Kiln\CustomerProjects\RenesasDemo\Factory_Demo_Whisker\YRDKRL78G14\drv\Glyph\RL78GlyphLib_Debug.r87 )
Warning[w15]: Predefined type sizing mismatch between modules glyph ( C:\Users\Steve\Dropbox\Kiln\CustomerProjects\RenesasDemo\Factory_Demo_Whisker\YRDKRL78G14\drv\Glyph\RL78GlyphLib_Debug.r87 ) and SPI _G14 ( C:\Users\Steve\Dropbox\Kiln\CustomerProjects\RenesasDemo\Factory_Demo_Whisker\YRDKRL78G14\Debug\Obj\SPI _G14.r87 )
Warning[w15]: Predefined type sizing mismatch between modules glyph ( C:\Users\Steve\Dropbox\Kiln\CustomerProjects\RenesasDemo\Factory_Demo_Whisker\YRDKRL78G14\drv\Glyph\RL78GlyphLib_Debug.r87 ) and SPI _G14 ( C:\Users\Steve\Dropbox\Kiln\CustomerProjects\RenesasDemo\Factory_Demo_Whisker\YRDKRL78G14\Debug\Obj\SPI _G14.r87 )
Warning[w6]: Type conflict for external/entry "App_WhiskerGW", in module main against external/entry in module App_WhiskerGW; prototyped function vs K&R function
  /* In module main: */
  /* Function, args 0, attr 0 */
  void App_WhiskerGW(void);
  /* In module App_WhiskerGW: */
  /* K&R Function, args 0, attr 0 */
  void App_WhiskerGW();
Warning[w6]: Type conflict for external/entry "R_CSI21_Send_Receive", in module RDKRL78_spi against external/entry in module r_cg_serial; function types differ in parameter 2; different basic types
  /* In module RDKRL78_spi: */
  /* Function, args 3, attr 0 */
  MD_STATUS R_CSI21_Send_Receive(unsigned char * const,
                                 uint16_t,
                                 unsigned char * const);
    typedef unsigned short MD_STATUS;
    typedef unsigned int uint16_t;
  /* In module r_cg_serial: */
  /* Function, args 3, attr 0 */
  MD_STATUS R_CSI21_Send_Receive(uint8_t * const,
                                 uint16_t,
                                 uint8_t * const);
    typedef unsigned short MD_STATUS;
    typedef unsigned char uint8_t;
    typedef unsigned short uint16_t;
Warning[w6]: Type conflict for external/entry "SPI_Send", in module xr20m1170 against external/entry in module RDKRL78_spi; function types differ in parameter 3; different basic types
  /* In module xr20m1170: */
  /* Function, args 3, attr 0 */
  void SPI_Send(uint8_t,
                uint8_t *,
                uint16_t);
    typedef unsigned char uint8_t;
    typedef unsigned short uint16_t;
  /* In module RDKRL78_spi: */
  /* Function, args 3, attr 0 */
  void SPI_Send(uint8_t,
                unsigned char *,
                uint16_t);
    typedef unsigned char uint8_t;
    typedef unsigned int uint16_t;
Warning[w6]: Type conflict for external/entry "SPI_SendReceive", in module xr20m1170 against external/entry in module RDKRL78_spi; function types differ in parameter 3; different basic types
  /* In module xr20m1170: */
  /* Function, args 4, attr 0 */
  uint8_t SPI_SendReceive(uint8_t,
                          uint8_t *,
                          uint16_t,
                          uint8_t *);
    typedef unsigned char uint8_t;
    typedef unsigned short uint16_t;
  /* In module RDKRL78_spi: */
  /* Function, args 4, attr 0 */
  uint8_t SPI_SendReceive(uint8_t,
                          unsigned char *,
                          uint16_t,
                          unsigned char *);
    typedef unsigned char uint8_t;
    typedef unsigned int uint16_t;
################################################################################
#                                                                              #
#      IAR Universal Linker V6.0.3.49                                          #
#                                                                              #
#           Link time     =  23/Sep/2015  13:14:54                             #
#           Target CPU    =  RL78                                              #
#           List file     =  C:\Users\Steve\Dropbox\Kiln\CustomerProjects\Rene #
#                            sasDemo\Factory_Demo_Whisker\YRDKRL78G14\Debug\Li #
#                            st\ADKRenesasG14.map                              #
#           Output file 1 =  C:\Users\Steve\Dropbox\Kiln\CustomerProjects\Rene #
#                            sasDemo\Factory_Demo_Whisker\YRDKRL78G14\Debug\Ex #
#                            e\ADKRenesasG14.d87                               #
#                            Format: debug                                     #
#                            UBROF version 10.0.6                              #
#           Output file 2 =  C:\Users\Steve\Dropbox\Kiln\CustomerProjects\Rene #
#                            sasDemo\Factory_Demo_Whisker\YRDKRL78G14\Debug\Ex #
#                            e\ADKRenesasG14.elf                               #
#                            Format: elf, variant: -yspc                       #
#           Command line  =  C:\Users\Steve\Dropbox\Kiln\CustomerProjects\Rene #
#                            sasDemo\Factory_Demo_Whisker\YRDKRL78G14\Debug\Ob #
#                            j\Accelerometer.r87                               #
#                            C:\Users\Steve\Dropbox\Kiln\CustomerProjects\Rene #
#                            sasDemo\Factory_Demo_Whisker\YRDKRL78G14\Debug\Ob #
#                            j\ADC.r87                                         #
#                            C:\Users\Steve\Dropbox\Kiln\CustomerProjects\Rene #
#                            sasDemo\Factory_Demo_Whisker\YRDKRL78G14\Debug\Ob #
#                            j\App_Startup.r87                                 #
#                            C:\Users\Steve\Dropbox\Kiln\CustomerProjects\Rene #
#                            sasDemo\Factory_Demo_Whisker\YRDKRL78G14\Debug\Ob #
#                            j\App_WhiskerGW.r87                               #
#                            C:\Users\Steve\Dropbox\Kiln\CustomerProjects\Rene #
#                            sasDemo\Factory_Demo_Whisker\YRDKRL78G14\Debug\Ob #
#                            j\AtCmdLib.r87                                    #
#                            C:\Users\Steve\Dropbox\Kiln\CustomerProjects\Rene #
#                            sasDemo\Factory_Demo_Whisker\YRDKRL78G14\Debug\Ob #
#                            j\console.r87                                     #
#                            C:\Users\Steve\Dropbox\Kiln\CustomerProjects\Rene #
#                            sasDemo\Factory_Demo_Whisker\YRDKRL78G14\Debug\Ob #
#                            j\cpu_bsp.r87                                     #
#                            C:\Users\Steve\Dropbox\Kiln\CustomerProjects\Rene #
#                            sasDemo\Factory_Demo_Whisker\YRDKRL78G14\Debug\Ob #
#                            j\cpu_core.r87                                    #
#                            C:\Users\Steve\Dropbox\Kiln\CustomerProjects\Rene #
#                            sasDemo\Factory_Demo_Whisker\YRDKRL78G14\Debug\Ob #
#                            j\EEPROM.r87                                      #
#                            C:\Users\Steve\Dropbox\Kiln\CustomerProjects\Rene #
#                            sasDemo\Factory_Demo_Whisker\YRDKRL78G14\Debug\Ob #
#                            j\eink_driver.r87                                 #
#                            C:\Users\Steve\Dropbox\Kiln\CustomerProjects\Rene #
#                            sasDemo\Factory_Demo_Whisker\YRDKRL78G14\Debug\Ob #
#                            j\eink_rdk_display.r87                            #
#                            C:\Users\Steve\Dropbox\Kiln\CustomerProjects\Rene #
#                            sasDemo\Factory_Demo_Whisker\YRDKRL78G14\Debug\Ob #
#                            j\GainSpan_IO.r87                                 #
#                            C:\Users\Steve\Dropbox\Kiln\CustomerProjects\Rene #
#                            sasDemo\Factory_Demo_Whisker\YRDKRL78G14\Debug\Ob #
#                            j\GainSpan_SPI.r87                                #
#                            C:\Users\Steve\Dropbox\Kiln\CustomerProjects\Rene #
#                            sasDemo\Factory_Demo_Whisker\YRDKRL78G14\Debug\Ob #
#                            j\glyph_register.r87                              #
#                            C:\Users\Steve\Dropbox\Kiln\CustomerProjects\Rene #
#                            sasDemo\Factory_Demo_Whisker\YRDKRL78G14\Debug\Ob #
#                            j\GSHAL.r87                                       #
#                            C:\Users\Steve\Dropbox\Kiln\CustomerProjects\Rene #
#                            sasDemo\Factory_Demo_Whisker\YRDKRL78G14\Debug\Ob #
#                            j\hwsetup.r87                                     #
#                            C:\Users\Steve\Dropbox\Kiln\CustomerProjects\Rene #
#                            sasDemo\Factory_Demo_Whisker\YRDKRL78G14\Debug\Ob #
#                            j\I2C.r87                                         #
#                            C:\Users\Steve\Dropbox\Kiln\CustomerProjects\Rene #
#                            sasDemo\Factory_Demo_Whisker\YRDKRL78G14\Debug\Ob #
#                            j\jsmn.r87                                        #
#                            C:\Users\Steve\Dropbox\Kiln\CustomerProjects\Rene #
#                            sasDemo\Factory_Demo_Whisker\YRDKRL78G14\Debug\Ob #
#                            j\lcd.r87                                         #
#                            C:\Users\Steve\Dropbox\Kiln\CustomerProjects\Rene #
#                            sasDemo\Factory_Demo_Whisker\YRDKRL78G14\Debug\Ob #
#                            j\led.r87                                         #
#                            C:\Users\Steve\Dropbox\Kiln\CustomerProjects\Rene #
#                            sasDemo\Factory_Demo_Whisker\YRDKRL78G14\Debug\Ob #
#                            j\lib_ascii.r87                                   #
#                            C:\Users\Steve\Dropbox\Kiln\CustomerProjects\Rene #
#                            sasDemo\Factory_Demo_Whisker\YRDKRL78G14\Debug\Ob #
#                            j\lib_math.r87                                    #
#                            C:\Users\Steve\Dropbox\Kiln\CustomerProjects\Rene #
#                            sasDemo\Factory_Demo_Whisker\YRDKRL78G14\Debug\Ob #
#                            j\lib_mem.r87                                     #
#                            C:\Users\Steve\Dropbox\Kiln\CustomerProjects\Rene #
#                            sasDemo\Factory_Demo_Whisker\YRDKRL78G14\Debug\Ob #
#                            j\lib_str.r87                                     #
#                            C:\Users\Steve\Dropbox\Kiln\CustomerProjects\Rene #
#                            sasDemo\Factory_Demo_Whisker\YRDKRL78G14\Debug\Ob #
#                            j\LibReplacement.r87                              #
#                            C:\Users\Steve\Dropbox\Kiln\CustomerProjects\Rene #
#                            sasDemo\Factory_Demo_Whisker\YRDKRL78G14\Debug\Ob #
#                            j\LightSensor.r87                                 #
#                            C:\Users\Steve\Dropbox\Kiln\CustomerProjects\Rene #
#                            sasDemo\Factory_Demo_Whisker\YRDKRL78G14\Debug\Ob #
#                            j\main.r87                                        #
#                            C:\Users\Steve\Dropbox\Kiln\CustomerProjects\Rene #
#                            sasDemo\Factory_Demo_Whisker\YRDKRL78G14\Debug\Ob #
#                            j\mqtt.r87                                        #
#                            C:\Users\Steve\Dropbox\Kiln\CustomerProjects\Rene #
#                            sasDemo\Factory_Demo_Whisker\YRDKRL78G14\Debug\Ob #
#                            j\mstimer.r87                                     #
#                            C:\Users\Steve\Dropbox\Kiln\CustomerProjects\Rene #
#                            sasDemo\Factory_Demo_Whisker\YRDKRL78G14\Debug\Ob #
#                            j\NVSettings.r87                                  #
#                            C:\Users\Steve\Dropbox\Kiln\CustomerProjects\Rene #
#                            sasDemo\Factory_Demo_Whisker\YRDKRL78G14\Debug\Ob #
#                            j\Potentiometer.r87                               #
#                            C:\Users\Steve\Dropbox\Kiln\CustomerProjects\Rene #
#                            sasDemo\Factory_Demo_Whisker\YRDKRL78G14\Debug\Ob #
#                            j\probe_com.r87                                   #
#                            C:\Users\Steve\Dropbox\Kiln\CustomerProjects\Rene #
#                            sasDemo\Factory_Demo_Whisker\YRDKRL78G14\Debug\Ob #
#                            j\probe_com_os.r87                                #
#                            C:\Users\Steve\Dropbox\Kiln\CustomerProjects\Rene #
#                            sasDemo\Factory_Demo_Whisker\YRDKRL78G14\Debug\Ob #
#                            j\probe_wifi.r87                                  #
#                            C:\Users\Steve\Dropbox\Kiln\CustomerProjects\Rene #
#                            sasDemo\Factory_Demo_Whisker\YRDKRL78G14\Debug\Ob #
#                            j\probe_wifi_os.r87                               #
#                            C:\Users\Steve\Dropbox\Kiln\CustomerProjects\Rene #
#                            sasDemo\Factory_Demo_Whisker\YRDKRL78G14\Debug\Ob #
#                            j\r_cg_serial.r87                                 #
#                            C:\Users\Steve\Dropbox\Kiln\CustomerProjects\Rene #
#                            sasDemo\Factory_Demo_Whisker\YRDKRL78G14\Debug\Ob #
#                            j\r_cg_serial_user.r87                            #
#                            C:\Users\Steve\Dropbox\Kiln\CustomerProjects\Rene #
#                            sasDemo\Factory_Demo_Whisker\YRDKRL78G14\Debug\Ob #
#                            j\r_cg_timer.r87                                  #
#                            C:\Users\Steve\Dropbox\Kiln\CustomerProjects\Rene #
#                            sasDemo\Factory_Demo_Whisker\YRDKRL78G14\Debug\Ob #
#                            j\r_cg_timer_user.r87                             #
#                            C:\Users\Steve\Dropbox\Kiln\CustomerProjects\Rene #
#                            sasDemo\Factory_Demo_Whisker\YRDKRL78G14\Debug\Ob #
#                            j\RDKRL78_spi.r87                                 #
#                            C:\Users\Steve\Dropbox\Kiln\CustomerProjects\Rene #
#                            sasDemo\Factory_Demo_Whisker\YRDKRL78G14\drv\Glyp #
#                            h\RL78GlyphLib_Debug.r87                          #
#                            "C:\Users\Steve\Dropbox\Kiln\CustomerProjects\Ren #
#                            esasDemo\Factory_Demo_Whisker\YRDKRL78G14\Debug\O #
#                            bj\SPI _G14.r87"                                  #
#                            C:\Users\Steve\Dropbox\Kiln\CustomerProjects\Rene #
#                            sasDemo\Factory_Demo_Whisker\YRDKRL78G14\Debug\Ob #
#                            j\Switch.r87                                      #
#                            C:\Users\Steve\Dropbox\Kiln\CustomerProjects\Rene #
#                            sasDemo\Factory_Demo_Whisker\YRDKRL78G14\Debug\Ob #
#                            j\Temperature.r87                                 #
#                            C:\Users\Steve\Dropbox\Kiln\CustomerProjects\Rene #
#                            sasDemo\Factory_Demo_Whisker\YRDKRL78G14\Debug\Ob #
#                            j\Timer.r87                                       #
#                            C:\Users\Steve\Dropbox\Kiln\CustomerProjects\Rene #
#                            sasDemo\Factory_Demo_Whisker\YRDKRL78G14\Debug\Ob #
#                            j\UART.r87                                        #
#                            C:\Users\Steve\Dropbox\Kiln\CustomerProjects\Rene #
#                            sasDemo\Factory_Demo_Whisker\YRDKRL78G14\Debug\Ob #
#                            j\user_app.r87                                    #
#                            C:\Users\Steve\Dropbox\Kiln\CustomerProjects\Rene #
#                            sasDemo\Factory_Demo_Whisker\YRDKRL78G14\Debug\Ob #
#                            j\xr20m1170.r87                                   #
#                            -D_HUGE_HEAP_SIZE=1000 -o                         #
#                            C:\Users\Steve\Dropbox\Kiln\CustomerProjects\Rene #
#                            sasDemo\Factory_Demo_Whisker\YRDKRL78G14\Debug\Ex #
#                            e\ADKRenesasG14.d87                               #
#                            -l                                                #
#                            C:\Users\Steve\Dropbox\Kiln\CustomerProjects\Rene #
#                            sasDemo\Factory_Demo_Whisker\YRDKRL78G14\Debug\Li #
#                            st\ADKRenesasG14.map                              #
#                            -xmsn                                             #
#                            "-IC:\Program Files (x86)\IAR Systems\Embedded Wo #
#                            rkbench 7.0\rl78\LIB\"                            #
#                            -f                                                #
#                            "C:\Program Files (x86)\IAR Systems\Embedded Work #
#                            bench 7.0\rl78\config\lnkr5f104pj.xcl"            #
#                            (-cRL78 -Z(CODE)INTVEC=00000-0007F                #
#                            -Z(CODE)CLTVEC=00080-000BF                        #
#                            -Z(CODE)OPTBYTE=000C0-000C3                       #
#                            -Z(CODE)SECUID=000C4-000CD --segment_mirror       #
#                            @NEAR_CONST=NEAR_CONST_ID                         #
#                            -Z(CONST)NEAR_CONST_ID=_NEAR_CONST_LOCATION_START #
#                            -_NEAR_CONST_LOCATION_END                         #
#                            -Z(DATA)NEAR_CONST=(_NEAR_CONST_LOCATION_START|F0 #
#                            000)-(_NEAR_CONST_LOCATION_END|F0000)             #
#                            -Z(CODE)RCODE,CODE=000D8-0FFFF                    #
#                            -Z(CONST)SWITCH=000D8-0FDFF                       #
#                            -Z(CONST)NEAR_ID=[000D8-0FDFF]/10000              #
#                            -Z(CONST)SADDR_ID=[000D8-0FDFF]/10000             #
#                            -Z(CONST)DIFUNCT=[000D8-0FDFF]/10000              #
#                            -Z(CONST)HUGE_ID=09F00-3FDFF                      #
#                            -Z(DATA)HUGE_I=F9F00-FFE1F                        #
#                            -Z(CONST)FAR_ID=[09F00-3FDFF]/10000               #
#                            -Z(DATA)FAR_I=[F9F00-FFE1F]/10000                 #
#                            -P(CONST)HUGE_CONST=000D8-3FDFF                   #
#                            -P(CONST)FAR_CONST,FSWITCH=[000D8-3FDFF]/10000    #
#                            -P(CODE)XCODE=[000D8-3FDFF]/10000                 #
#                            -Z(CONST)EEPROM=F1000-F2FFF                       #
#                            -Z(DATA)WRKSEG=FFE20-FFEDF                        #
#                            -Z(DATA)SADDR_I,SADDR_Z,SADDR_N=FFE20-FFEDF       #
#                            -Z(DATA)NEAR_I,NEAR_Z,NEAR_N=F9F00-FFE1F          #
#                            -Z(DATA)HUGE_Z=F9F00-FFE1F                        #
#                            -P(DATA)HUGE_N=F9F00-FFE1F                        #
#                            -Z(DATA)FAR_Z=[F9F00-FFE1F]/10000                 #
#                            -P(DATA)FAR_N=[F9F00-FFE1F]/10000                 #
#                            -Z(DATA)NEAR_HEAP+_NEAR_HEAP_SIZE=F9F00-FFE1F     #
#                            -Z(DATA)HUGE_HEAP+_HUGE_HEAP_SIZE=F9F00-FFE1F     #
#                            -Z(DATA)FAR_HEAP+_FAR_HEAP_SIZE=[F9F00-FFE1F]/100 #
#                            00                                                #
#                            -Z(DATA)CSTACK+_CSTACK_SIZE=F9F00-FFE1F)          #
#                            -Fubrof                                           #
#                            -Oelf,spc=C:\Users\Steve\Dropbox\Kiln\CustomerPro #
#                            jects\RenesasDemo\Factory_Demo_Whisker\YRDKRL78G1 #
#                            4\Debug\Exe\ADKRenesasG14.elf                     #
#                            -s __program_start -D_NEAR_CONST_LOCATION=0       #
#                            -D_NEAR_CONST_LOCATION_START=3000                 #
#                            -D_NEAR_CONST_LOCATION_END=9EFF                   #
#                            "C:\Program Files (x86)\IAR Systems\Embedded Work #
#                            bench 7.0\rl78\LIB\dlrl78nn2n.r87"                #
#                            -eHWDIV_8_8_8=?UC_DIV_L01                         #
#                            -eHWMOD_8_8_8=?UC_MOD_L01                         #
#                            -eHWSDIV_8_8_8=?SC_DIV_L01                        #
#                            -eHWSMOD_8_8_8=?SC_MOD_L01                        #
#                            -eHWSDIV_16_16_16=?SI_DIV_L02                     #
#                            -eHWSMOD_16_16_16=?SI_MOD_L02                     #
#                            -eHWSDIV_32_32_32=?SL_DIV_L03                     #
#                            -eHWSMOD_32_32_32=?SL_MOD_L03                     #
#                            -e_PrintfLarge=_Printf -e_ScanfSmall=_Scanf       #
#                            -D_CSTACK_SIZE=400 -D_NEAR_HEAP_SIZE=100          #
#                            -D_FAR_HEAP_SIZE=1000                             #
#                                                                              #
#                           Copyright (C) 1987-2014 IAR Systems AB.            #
################################################################################





                ****************************************
                *                                      *
                *           CROSS REFERENCE            *
                *                                      *
                ****************************************

       Program entry at :           00000300  Relocatable, from module : ?CSTARTUP




                ****************************************
                *                                      *
                *            RUNTIME MODEL             *
                *                                      *
                ****************************************

  __Heap_Handler             = Basic
  __SystemLibrary            = DLib
  __code_model               = near
  __core                     = rl78_2
  __data_model               = near
  __dlib_file_descriptor     = 0
  __dlib_full_locale_support = 0
  __far_rt_calls             = false
  __rt_version               = 1

                ****************************************
                *                                      *
                *    AUTOMATIC SYMBOL REDIRECTIONS     *
                *                                      *
                ****************************************

                  There are no automatic symbol redirections.



                ****************************************
                *                                      *
                *              MODULE MAP              *
                *                                      *
                ****************************************


  DEFINED ABSOLUTE ENTRIES
    *************************************************************************

  DEFINED ABSOLUTE ENTRIES
  PROGRAM MODULE, NAME : ?ABS_ENTRY_MOD

Absolute parts
           ENTRY                   ADDRESS         REF BY
           =====                   =======         ======
           _FAR_HEAP_SIZE          00001000 
           _NEAR_HEAP_SIZE         00000100 
           _CSTACK_SIZE            00000400 
           _NEAR_CONST_LOCATION_END
                                   00009EFF 
           _NEAR_CONST_LOCATION_START
                                   00003000 
           _NEAR_CONST_LOCATION    00000000        Segment part 4 (?CSTARTUP)
           _HUGE_HEAP_SIZE         00001000 
    *************************************************************************

  FILE NAME : C:\Users\Steve\Dropbox\Kiln\CustomerProjects\RenesasDemo\Factory_Demo_Whisker\YRDKRL78G14\Debug\Obj\Accelerometer.r87
  PROGRAM MODULE, NAME : Accelerometer

  SEGMENTS IN THE MODULE
  ======================
NEAR_Z
  Relative segment, address: 000FA044 - 000FA049 (0x6 bytes), align: 1
  Segment part 4.
           ENTRY                   ADDRESS         REF BY
           =====                   =======         ======
           gAccData                000FA044        AtLib_GSLinkGetPostResp (AtCmdLib)

    *************************************************************************

  FILE NAME : C:\Users\Steve\Dropbox\Kiln\CustomerProjects\RenesasDemo\Factory_Demo_Whisker\YRDKRL78G14\Debug\Obj\ADC.r87
  PROGRAM MODULE, NAME : ADC

  SEGMENTS IN THE MODULE
  ======================
SADDR_A
  Relative segment, address: 000FFF1E - 000FFF1F (0x2 bytes), align: 0
  Segment part 1. ROOT 
           ENTRY                   ADDRESS         REF BY
           =====                   =======         ======
           _A_ADCR                 000FFF1E 
           LOCAL                   ADDRESS         
           =====                   =======         
           ADCR                    000FFF1E 
           ADCRH                   000FFF1F 
           ADCRH_bit               000FFF1F 
           ADCR_bit                000FFF1E 
           dummy                   000FFF1E 
           dummy_bit               000FFF1E 
    -------------------------------------------------------------------------
NEAR_A
  Relative segment, address: 000FFF22 - 000FFF22 (0x1 bytes), align: 0
  Segment part 2. ROOT        Intra module refs:   ADC_Start
                                                   PORT2 (led)
           ENTRY                   ADDRESS         REF BY
           =====                   =======         ======
           _A_PM2                  000FFF22 
           LOCAL                   ADDRESS         
           =====                   =======         
           PM2                     000FFF22 
           PM2_bit                 000FFF22 
    -------------------------------------------------------------------------
NEAR_A
  Relative segment, address: 000FFF30 - 000FFF30 (0x1 bytes), align: 0
  Segment part 3. ROOT        Intra module refs:   ADC_Start
           ENTRY                   ADDRESS         REF BY
           =====                   =======         ======
           _A_ADM0                 000FFF30 
           LOCAL                   ADDRESS         
           =====                   =======         
           ADM0                    000FFF30 
           ADM0_bit                000FFF30 
    -------------------------------------------------------------------------
NEAR_A
  Relative segment, address: 000FFF31 - 000FFF31 (0x1 bytes), align: 0
  Segment part 4. ROOT        Intra module refs:   ADC_EnableChannel
           ENTRY                   ADDRESS         REF BY
           =====                   =======         ======
           _A_ADS                  000FFF31 
           LOCAL                   ADDRESS         
           =====                   =======         
           ADS                     000FFF31 
           ADS_bit                 000FFF31 
    -------------------------------------------------------------------------
NEAR_A
  Relative segment, address: 000FFF32 - 000FFF32 (0x1 bytes), align: 0
  Segment part 5. ROOT        Intra module refs:   ADC_Start
           ENTRY                   ADDRESS         REF BY
           =====                   =======         ======
           _A_ADM1                 000FFF32 
           LOCAL                   ADDRESS         
           =====                   =======         
           ADM1                    000FFF32 
           ADM1_bit                000FFF32 
    -------------------------------------------------------------------------
NEAR_A
  Relative segment, address: 000FFFE2 - 000FFFE3 (0x2 bytes), align: 0
  Segment part 6. ROOT        Intra module refs:   ADC_Start
                                                   Create_UART1 (UART)
                                                   I2C_Start (I2C)
                                                   SPI_DisableInterrupts (SPI _G14)
                                                   SPI_EnableInterrupts (SPI _G14)
                                                   Timer_Start (Timer)
                                                   UART1_RXError_ISRHandler (UART)
                                                   UART1_RX_ISRHandler (UART)
                                                   UART1_TX_ISRHandler (UART)
           ENTRY                   ADDRESS         REF BY
           =====                   =======         ======
           _A_IF1                  000FFFE2 
           LOCAL                   ADDRESS         
           =====                   =======         
           IF1                     000FFFE2 
           IF1H                    000FFFE3 
           IF1H_bit                000FFFE3 
           IF1L                    000FFFE2 
           IF1L_bit                000FFFE2 
    -------------------------------------------------------------------------
NEAR_A
  Relative segment, address: 000FFFE6 - 000FFFE7 (0x2 bytes), align: 0
  Segment part 7. ROOT        Intra module refs:   ADC_Start
                                                   Create_UART1 (UART)
                                                   I2C_Read (I2C)
                                                   I2C_Start (I2C)
                                                   I2C_Write (I2C)
                                                   MSTimerGet (mstimer)
                                                   MSTimerInit (mstimer)
                                                   SPI_DisableInterrupts (SPI _G14)
                                                   SPI_EnableInterrupts (SPI _G14)
                                                   Timer_Start (Timer)
           ENTRY                   ADDRESS         REF BY
           =====                   =======         ======
           _A_MK1                  000FFFE6 
           LOCAL                   ADDRESS         
           =====                   =======         
           MK1                     000FFFE6 
           MK1H                    000FFFE7 
           MK1H_bit                000FFFE7 
           MK1L                    000FFFE6 
           MK1L_bit                000FFFE6 
    -------------------------------------------------------------------------
NEAR_A
  Relative segment, address: 000FFFEA - 000FFFEB (0x2 bytes), align: 0
  Segment part 8. ROOT        Intra module refs:   ADC_Start
                                                   Create_UART1 (UART)
                                                   I2C_Start (I2C)
                                                   SPI_Init (SPI _G14)
                                                   Timer_Start (Timer)
           ENTRY                   ADDRESS         REF BY
           =====                   =======         ======
           _A_PR01                 000FFFEA 
           LOCAL                   ADDRESS         
           =====                   =======         
           PR01                    000FFFEA 
           PR01H                   000FFFEB 
           PR01H_bit               000FFFEB 
           PR01L                   000FFFEA 
           PR01L_bit               000FFFEA 
    -------------------------------------------------------------------------
NEAR_A
  Relative segment, address: 000FFFEE - 000FFFEF (0x2 bytes), align: 0
  Segment part 9. ROOT        Intra module refs:   ADC_Start
                                                   Create_UART1 (UART)
                                                   I2C_Start (I2C)
                                                   SPI_Init (SPI _G14)
                                                   Timer_Start (Timer)
           ENTRY                   ADDRESS         REF BY
           =====                   =======         ======
           _A_PR11                 000FFFEE 
           LOCAL                   ADDRESS         
           =====                   =======         
           PR11                    000FFFEE 
           PR11H                   000FFFEF 
           PR11H_bit               000FFFEF 
           PR11L                   000FFFEE 
           PR11L_bit               000FFFEE 
    -------------------------------------------------------------------------
NEAR_A
  Relative segment, address: 000F0010 - 000F0010 (0x1 bytes), align: 0
  Segment part 10. ROOT       Intra module refs:   ADC_Start
           ENTRY                   ADDRESS         REF BY
           =====                   =======         ======
           _A_ADM2                 000F0010 
           LOCAL                   ADDRESS         
           =====                   =======         
           ADM2                    000F0010 
           ADM2_bit                000F0010 
    -------------------------------------------------------------------------
NEAR_A
  Relative segment, address: 000F0011 - 000F0011 (0x1 bytes), align: 0
  Segment part 11. ROOT       Intra module refs:   ADC_Start
           ENTRY                   ADDRESS         REF BY
           =====                   =======         ======
           _A_ADUL                 000F0011 
           LOCAL                   ADDRESS         
           =====                   =======         
           ADUL                    000F0011 
           ADUL_bit                000F0011 
    -------------------------------------------------------------------------
NEAR_A
  Relative segment, address: 000F0012 - 000F0012 (0x1 bytes), align: 0
  Segment part 12. ROOT       Intra module refs:   ADC_Start
           ENTRY                   ADDRESS         REF BY
           =====                   =======         ======
           _A_ADLL                 000F0012 
           LOCAL                   ADDRESS         
           =====                   =======         
           ADLL                    000F0012 
           ADLL_bit                000F0012 
    -------------------------------------------------------------------------
NEAR_A
  Relative segment, address: 000F00F0 - 000F00F0 (0x1 bytes), align: 0
  Segment part 13. ROOT       Intra module refs:   ADC_Start
                                                   I2C_Start (I2C)
                                                   RL78G14RDK_UART_Start (UART)
                                                   R_SAU1_Create (r_cg_serial)
                                                   Timer_Start (Timer)
           ENTRY                   ADDRESS         REF BY
           =====                   =======         ======
           _A_PER0                 000F00F0 
           LOCAL                   ADDRESS         
           =====                   =======         
           PER0                    000F00F0 
           PER0_bit                000F00F0 
    -------------------------------------------------------------------------
CODE
  Relative segment, address: 00004DAA - 00004DAB (0x2 bytes), align: 0
  Segment part 16.            Intra module refs:   Interrupt_ADC::??INTVEC 52
           ENTRY                   ADDRESS         REF BY
           =====                   =======         ======
           Interrupt_ADC           00004DAA 
               interrupt function
    -------------------------------------------------------------------------
CODE
  Relative segment, address: 00004DAC - 00004DE3 (0x38 bytes), align: 0
  Segment part 17.
           ENTRY                   ADDRESS         REF BY
           =====                   =======         ======
           ADC_Start               00004DAC        Potentiometer_Init (Potentiometer)
    -------------------------------------------------------------------------
CODE
  Relative segment, address: 00004DE4 - 00004DE6 (0x3 bytes), align: 0
  Segment part 18.
           ENTRY                   ADDRESS         REF BY
           =====                   =======         ======
           ADC_EnableChannel       00004DE4        Potentiometer_Init (Potentiometer)
    -------------------------------------------------------------------------
INTVEC
  Common segment, address: 00000000 - 00000035 (0x36 bytes), align: 1
  Segment part 14. ROOT 
           ENTRY                   ADDRESS         REF BY
           =====                   =======         ======
           Interrupt_ADC::??INTVEC 52
                                   00000034 

    *************************************************************************

  FILE NAME : C:\Users\Steve\Dropbox\Kiln\CustomerProjects\RenesasDemo\Factory_Demo_Whisker\YRDKRL78G14\Debug\Obj\App_Startup.r87
  PROGRAM MODULE, NAME : App_Startup

  SEGMENTS IN THE MODULE
  ======================
CODE
  Relative segment, address: 00004DE7 - 00004DF5 (0xf bytes), align: 0
  Segment part 80.            Intra module refs:   App_StartupLimitedAP
                                                   App_WhiskerGW (App_WhiskerGW)
                                                   AtLibGs_ParseDNSLookupResponse (AtCmdLib)
                                                   AtLibGs_ParseGetMacResponse (AtCmdLib)
                                                   AtLibGs_ParseRssiResponse (AtCmdLib)
                                                   AtLibGs_TCPClientStart (AtCmdLib)
                                                   AtLibGs_checkEOFMessage (AtCmdLib)
                                                   init_socket (mqtt)
           ENTRY                   ADDRESS         REF BY
           =====                   =======         ======
           strstr                  00004DE7 
               calls direct
               CSTACK = 00000000 ( 00000004 )
    -------------------------------------------------------------------------
NEAR_Z
  Relative segment, address: 000FA04A - 000FA0AB (0x62 bytes), align: 1
  Segment part 73.            Intra module refs:   App_WebProvisioning_OverAirPush
           ENTRY                   ADDRESS         REF BY
           =====                   =======         ======
           GNV_Setting             000FA04A        App_WhiskerGW (App_WhiskerGW)
                                                   WIFI_Associate (App_WhiskerGW)
                                                   WIFI_init (App_WhiskerGW)
    -------------------------------------------------------------------------
NEAR_Z
  Relative segment, address: 000FA0AC - 000FA0C5 (0x1a bytes), align: 1
  Segment part 74.            Intra module refs:   App_WebProvisioning_OverAirPush
           ENTRY                   ADDRESS         REF BY
           =====                   =======         ======
           str_config_ssid         000FA0AC 
    -------------------------------------------------------------------------
NEAR_Z
  Relative segment, address: 000FA0C6 - 000FA0D9 (0x14 bytes), align: 1
  Segment part 76.            Intra module refs:   App_WebProvisioning_OverAirPush
           ENTRY                   ADDRESS         REF BY
           =====                   =======         ======
           WiFiMAC                 000FA0C6        WIFI_init (App_WhiskerGW)
    -------------------------------------------------------------------------
NEAR_Z
  Relative segment, address: 000FA0DA - 000FA0E7 (0xe bytes), align: 1
  Segment part 77.            Intra module refs:   App_WebProvisioning_OverAirPush
           ENTRY                   ADDRESS         REF BY
           =====                   =======         ======
           WiFiMACStr              000FA0DA 
    -------------------------------------------------------------------------
CODE
  Relative segment, address: 00004DF6 - 00004E66 (0x71 bytes), align: 0
  Segment part 81.            Intra module refs:   App_WebProvisioning_OverAirPush
           ENTRY                   ADDRESS         REF BY
           =====                   =======         ======
           App_InitModule          00004DF6 
               calls direct
               CSTACK = 00000000 ( 00000004 )
    -------------------------------------------------------------------------
CODE
  Relative segment, address: 00004E67 - 00004F7B (0x115 bytes), align: 0
  Segment part 82.            Intra module refs:   App_WebProvisioning_OverAirPush
           ENTRY                   ADDRESS         REF BY
           =====                   =======         ======
           App_StartupLimitedAP    00004E67 
               calls direct
               CSTACK = 00000000 ( 00000008 )
    -------------------------------------------------------------------------
CODE
  Relative segment, address: 00004F7C - 00005136 (0x1bb bytes), align: 0
  Segment part 84.
           ENTRY                   ADDRESS         REF BY
           =====                   =======         ======
           App_WebProvisioning_OverAirPush
                                   00004F7C        main (main)
               calls direct
               CSTACK = 00000000 ( 00000012 )
    -------------------------------------------------------------------------
NEAR_CONST
  Relative segment, address: 000F3000 - 000F300B (0xc bytes), align: 1
  Segment part 2.             Intra module refs:   App_InitModule
    -------------------------------------------------------------------------
NEAR_CONST
  Relative segment, address: 000F300C - 000F3017 (0xc bytes), align: 1
  Segment part 3.             Intra module refs:   App_InitModule
    -------------------------------------------------------------------------
NEAR_CONST
  Relative segment, address: 000F3018 - 000F3023 (0xc bytes), align: 1
  Segment part 4.             Intra module refs:   App_InitModule
    -------------------------------------------------------------------------
NEAR_CONST
  Relative segment, address: 000F3024 - 000F302F (0xc bytes), align: 1
  Segment part 5.             Intra module refs:   App_InitModule
    -------------------------------------------------------------------------
NEAR_CONST
  Relative segment, address: 000F3030 - 000F3031 (0x2 bytes), align: 1
  Segment part 6.             Intra module refs:   App_InitModule
                                                   App_StartupLimitedAP
                                                   App_WebProvisioning_OverAirPush
    -------------------------------------------------------------------------
NEAR_CONST
  Relative segment, address: 000F3032 - 000F303D (0xc bytes), align: 1
  Segment part 7.             Intra module refs:   App_StartupLimitedAP
    -------------------------------------------------------------------------
NEAR_CONST
  Relative segment, address: 000F303E - 000F304B (0xe bytes), align: 1
  Segment part 8.             Intra module refs:   App_StartupLimitedAP
    -------------------------------------------------------------------------
NEAR_CONST
  Relative segment, address: 000F304C - 000F3059 (0xe bytes), align: 1
  Segment part 9.             Intra module refs:   App_StartupLimitedAP
    -------------------------------------------------------------------------
NEAR_CONST
  Relative segment, address: 000F305A - 000F3061 (0x8 bytes), align: 1
  Segment part 10.            Intra module refs:   App_StartupLimitedAP
    -------------------------------------------------------------------------
NEAR_CONST
  Relative segment, address: 000F3062 - 000F3071 (0x10 bytes), align: 1
  Segment part 11.            Intra module refs:   App_StartupLimitedAP
    -------------------------------------------------------------------------
NEAR_CONST
  Relative segment, address: 000F3072 - 000F3077 (0x6 bytes), align: 1
  Segment part 12.            Intra module refs:   App_StartupLimitedAP
    -------------------------------------------------------------------------
NEAR_CONST
  Relative segment, address: 000F3078 - 000F307D (0x6 bytes), align: 1
  Segment part 13.            Intra module refs:   App_StartupLimitedAP
    -------------------------------------------------------------------------
NEAR_CONST
  Relative segment, address: 000F307E - 000F3095 (0x18 bytes), align: 1
  Segment part 14.            Intra module refs:   App_StartupLimitedAP
    -------------------------------------------------------------------------
NEAR_CONST
  Relative segment, address: 000F3096 - 000F309F (0xa bytes), align: 1
  Segment part 15.            Intra module refs:   App_StartupLimitedAP
    -------------------------------------------------------------------------
NEAR_CONST
  Relative segment, address: 000F30A0 - 000F30AB (0xc bytes), align: 1
  Segment part 16.            Intra module refs:   App_StartupLimitedAP
    -------------------------------------------------------------------------
NEAR_CONST
  Relative segment, address: 000F30AC - 000F30B9 (0xe bytes), align: 1
  Segment part 17.            Intra module refs:   App_StartupLimitedAP
    -------------------------------------------------------------------------
NEAR_CONST
  Relative segment, address: 000F30BA - 000F30C9 (0x10 bytes), align: 1
  Segment part 29.            Intra module refs:   App_WebProvisioning_OverAirPush
    -------------------------------------------------------------------------
NEAR_CONST
  Relative segment, address: 000F30CA - 000F30CF (0x6 bytes), align: 1
  Segment part 30.            Intra module refs:   App_WebProvisioning_OverAirPush
    -------------------------------------------------------------------------
NEAR_CONST
  Relative segment, address: 000F30D0 - 000F30DB (0xc bytes), align: 1
  Segment part 31.            Intra module refs:   App_WebProvisioning_OverAirPush
    -------------------------------------------------------------------------
NEAR_CONST
  Relative segment, address: 000F30DC - 000F30DD (0x2 bytes), align: 1
  Segment part 32.            Intra module refs:   App_WebProvisioning_OverAirPush
    -------------------------------------------------------------------------
NEAR_CONST
  Relative segment, address: 000F30DE - 000F30EB (0xe bytes), align: 1
  Segment part 33.            Intra module refs:   App_WebProvisioning_OverAirPush
    -------------------------------------------------------------------------
NEAR_CONST
  Relative segment, address: 000F30EC - 000F30F9 (0xe bytes), align: 1
  Segment part 34.            Intra module refs:   App_WebProvisioning_OverAirPush
    -------------------------------------------------------------------------
NEAR_CONST
  Relative segment, address: 000F30FA - 000F3101 (0x8 bytes), align: 1
  Segment part 35.            Intra module refs:   App_WebProvisioning_OverAirPush
    -------------------------------------------------------------------------
NEAR_CONST
  Relative segment, address: 000F3102 - 000F3107 (0x6 bytes), align: 1
  Segment part 36.            Intra module refs:   App_WebProvisioning_OverAirPush
    -------------------------------------------------------------------------
NEAR_CONST
  Relative segment, address: 000F3108 - 000F3115 (0xe bytes), align: 1
  Segment part 37.            Intra module refs:   App_WebProvisioning_OverAirPush
    -------------------------------------------------------------------------
NEAR_CONST
  Relative segment, address: 000F3116 - 000F3123 (0xe bytes), align: 1
  Segment part 38.            Intra module refs:   App_WebProvisioning_OverAirPush
    -------------------------------------------------------------------------
NEAR_CONST
  Relative segment, address: 000F3124 - 000F3129 (0x6 bytes), align: 1
  Segment part 39.            Intra module refs:   App_WebProvisioning_OverAirPush
    -------------------------------------------------------------------------
NEAR_CONST
  Relative segment, address: 000F312A - 000F312F (0x6 bytes), align: 1
  Segment part 40.            Intra module refs:   App_WebProvisioning_OverAirPush
    -------------------------------------------------------------------------
NEAR_CONST
  Relative segment, address: 000F3130 - 000F3133 (0x4 bytes), align: 1
  Segment part 41.            Intra module refs:   App_WebProvisioning_OverAirPush
    -------------------------------------------------------------------------
NEAR_CONST
  Relative segment, address: 000F3134 - 000F3143 (0x10 bytes), align: 1
  Segment part 42.            Intra module refs:   App_WebProvisioning_OverAirPush
    -------------------------------------------------------------------------
NEAR_CONST
  Relative segment, address: 000F3144 - 000F3151 (0xe bytes), align: 1
  Segment part 43.            Intra module refs:   App_WebProvisioning_OverAirPush
    -------------------------------------------------------------------------
NEAR_CONST
  Relative segment, address: 000F3152 - 000F3159 (0x8 bytes), align: 1
  Segment part 44.            Intra module refs:   App_WebProvisioning_OverAirPush
    -------------------------------------------------------------------------
NEAR_CONST
  Relative segment, address: 000F315A - 000F316B (0x12 bytes), align: 1
  Segment part 45.            Intra module refs:   App_WebProvisioning_OverAirPush
    -------------------------------------------------------------------------
NEAR_CONST
  Relative segment, address: 000F316C - 000F317B (0x10 bytes), align: 1
  Segment part 46.            Intra module refs:   App_WebProvisioning_OverAirPush
    -------------------------------------------------------------------------
NEAR_CONST
  Relative segment, address: 000F317C - 000F3189 (0xe bytes), align: 1
  Segment part 47.            Intra module refs:   App_WebProvisioning_OverAirPush
    -------------------------------------------------------------------------
NEAR_CONST
  Relative segment, address: 000F318A - 000F3197 (0xe bytes), align: 1
  Segment part 48.            Intra module refs:   App_WebProvisioning_OverAirPush
    -------------------------------------------------------------------------
NEAR_CONST
  Relative segment, address: 000F3198 - 000F31A3 (0xc bytes), align: 1
  Segment part 49.            Intra module refs:   App_WebProvisioning_OverAirPush
    -------------------------------------------------------------------------
NEAR_CONST
  Relative segment, address: 000F31A4 - 000F31B1 (0xe bytes), align: 1
  Segment part 50.            Intra module refs:   App_WebProvisioning_OverAirPush
    -------------------------------------------------------------------------
NEAR_CONST
  Relative segment, address: 000F31B2 - 000F31BF (0xe bytes), align: 1
  Segment part 51.            Intra module refs:   App_WebProvisioning_OverAirPush
    -------------------------------------------------------------------------
NEAR_CONST
  Relative segment, address: 000F31C0 - 000F31CB (0xc bytes), align: 1
  Segment part 52.            Intra module refs:   App_WebProvisioning_OverAirPush
    -------------------------------------------------------------------------
NEAR_CONST_ID
  Relative segment, address: 00003000 - 0000300B (0xc bytes), align: 1
  Segment part 88.            Intra module refs:   Segment part 2
    -------------------------------------------------------------------------
NEAR_CONST_ID
  Relative segment, address: 0000300C - 00003017 (0xc bytes), align: 1
  Segment part 89.            Intra module refs:   Segment part 3
    -------------------------------------------------------------------------
NEAR_CONST_ID
  Relative segment, address: 00003018 - 00003023 (0xc bytes), align: 1
  Segment part 90.            Intra module refs:   Segment part 4
    -------------------------------------------------------------------------
NEAR_CONST_ID
  Relative segment, address: 00003024 - 0000302F (0xc bytes), align: 1
  Segment part 91.            Intra module refs:   Segment part 5
    -------------------------------------------------------------------------
NEAR_CONST_ID
  Relative segment, address: 00003030 - 00003031 (0x2 bytes), align: 1
  Segment part 92.            Intra module refs:   Segment part 6
    -------------------------------------------------------------------------
NEAR_CONST_ID
  Relative segment, address: 00003032 - 0000303D (0xc bytes), align: 1
  Segment part 93.            Intra module refs:   Segment part 7
    -------------------------------------------------------------------------
NEAR_CONST_ID
  Relative segment, address: 0000303E - 0000304B (0xe bytes), align: 1
  Segment part 94.            Intra module refs:   Segment part 8
    -------------------------------------------------------------------------
NEAR_CONST_ID
  Relative segment, address: 0000304C - 00003059 (0xe bytes), align: 1
  Segment part 95.            Intra module refs:   Segment part 9
    -------------------------------------------------------------------------
NEAR_CONST_ID
  Relative segment, address: 0000305A - 00003061 (0x8 bytes), align: 1
  Segment part 96.            Intra module refs:   Segment part 10
    -------------------------------------------------------------------------
NEAR_CONST_ID
  Relative segment, address: 00003062 - 00003071 (0x10 bytes), align: 1
  Segment part 97.            Intra module refs:   Segment part 11
    -------------------------------------------------------------------------
NEAR_CONST_ID
  Relative segment, address: 00003072 - 00003077 (0x6 bytes), align: 1
  Segment part 98.            Intra module refs:   Segment part 12
    -------------------------------------------------------------------------
NEAR_CONST_ID
  Relative segment, address: 00003078 - 0000307D (0x6 bytes), align: 1
  Segment part 99.            Intra module refs:   Segment part 13
    -------------------------------------------------------------------------
NEAR_CONST_ID
  Relative segment, address: 0000307E - 00003095 (0x18 bytes), align: 1
  Segment part 100.           Intra module refs:   Segment part 14
    -------------------------------------------------------------------------
NEAR_CONST_ID
  Relative segment, address: 00003096 - 0000309F (0xa bytes), align: 1
  Segment part 101.           Intra module refs:   Segment part 15
    -------------------------------------------------------------------------
NEAR_CONST_ID
  Relative segment, address: 000030A0 - 000030AB (0xc bytes), align: 1
  Segment part 102.           Intra module refs:   Segment part 16
    -------------------------------------------------------------------------
NEAR_CONST_ID
  Relative segment, address: 000030AC - 000030B9 (0xe bytes), align: 1
  Segment part 103.           Intra module refs:   Segment part 17
    -------------------------------------------------------------------------
NEAR_CONST_ID
  Relative segment, address: 000030BA - 000030C9 (0x10 bytes), align: 1
  Segment part 115.           Intra module refs:   Segment part 29
    -------------------------------------------------------------------------
NEAR_CONST_ID
  Relative segment, address: 000030CA - 000030CF (0x6 bytes), align: 1
  Segment part 116.           Intra module refs:   Segment part 30
    -------------------------------------------------------------------------
NEAR_CONST_ID
  Relative segment, address: 000030D0 - 000030DB (0xc bytes), align: 1
  Segment part 117.           Intra module refs:   Segment part 31
    -------------------------------------------------------------------------
NEAR_CONST_ID
  Relative segment, address: 000030DC - 000030DD (0x2 bytes), align: 1
  Segment part 118.           Intra module refs:   Segment part 32
    -------------------------------------------------------------------------
NEAR_CONST_ID
  Relative segment, address: 000030DE - 000030EB (0xe bytes), align: 1
  Segment part 119.           Intra module refs:   Segment part 33
    -------------------------------------------------------------------------
NEAR_CONST_ID
  Relative segment, address: 000030EC - 000030F9 (0xe bytes), align: 1
  Segment part 120.           Intra module refs:   Segment part 34
    -------------------------------------------------------------------------
NEAR_CONST_ID
  Relative segment, address: 000030FA - 00003101 (0x8 bytes), align: 1
  Segment part 121.           Intra module refs:   Segment part 35
    -------------------------------------------------------------------------
NEAR_CONST_ID
  Relative segment, address: 00003102 - 00003107 (0x6 bytes), align: 1
  Segment part 122.           Intra module refs:   Segment part 36
    -------------------------------------------------------------------------
NEAR_CONST_ID
  Relative segment, address: 00003108 - 00003115 (0xe bytes), align: 1
  Segment part 123.           Intra module refs:   Segment part 37
    -------------------------------------------------------------------------
NEAR_CONST_ID
  Relative segment, address: 00003116 - 00003123 (0xe bytes), align: 1
  Segment part 124.           Intra module refs:   Segment part 38
    -------------------------------------------------------------------------
NEAR_CONST_ID
  Relative segment, address: 00003124 - 00003129 (0x6 bytes), align: 1
  Segment part 125.           Intra module refs:   Segment part 39
    -------------------------------------------------------------------------
NEAR_CONST_ID
  Relative segment, address: 0000312A - 0000312F (0x6 bytes), align: 1
  Segment part 126.           Intra module refs:   Segment part 40
    -------------------------------------------------------------------------
NEAR_CONST_ID
  Relative segment, address: 00003130 - 00003133 (0x4 bytes), align: 1
  Segment part 127.           Intra module refs:   Segment part 41
    -------------------------------------------------------------------------
NEAR_CONST_ID
  Relative segment, address: 00003134 - 00003143 (0x10 bytes), align: 1
  Segment part 128.           Intra module refs:   Segment part 42
    -------------------------------------------------------------------------
NEAR_CONST_ID
  Relative segment, address: 00003144 - 00003151 (0xe bytes), align: 1
  Segment part 129.           Intra module refs:   Segment part 43
    -------------------------------------------------------------------------
NEAR_CONST_ID
  Relative segment, address: 00003152 - 00003159 (0x8 bytes), align: 1
  Segment part 130.           Intra module refs:   Segment part 44
    -------------------------------------------------------------------------
NEAR_CONST_ID
  Relative segment, address: 0000315A - 0000316B (0x12 bytes), align: 1
  Segment part 131.           Intra module refs:   Segment part 45
    -------------------------------------------------------------------------
NEAR_CONST_ID
  Relative segment, address: 0000316C - 0000317B (0x10 bytes), align: 1
  Segment part 132.           Intra module refs:   Segment part 46
    -------------------------------------------------------------------------
NEAR_CONST_ID
  Relative segment, address: 0000317C - 00003189 (0xe bytes), align: 1
  Segment part 133.           Intra module refs:   Segment part 47
    -------------------------------------------------------------------------
NEAR_CONST_ID
  Relative segment, address: 0000318A - 00003197 (0xe bytes), align: 1
  Segment part 134.           Intra module refs:   Segment part 48
    -------------------------------------------------------------------------
NEAR_CONST_ID
  Relative segment, address: 00003198 - 000031A3 (0xc bytes), align: 1
  Segment part 135.           Intra module refs:   Segment part 49
    -------------------------------------------------------------------------
NEAR_CONST_ID
  Relative segment, address: 000031A4 - 000031B1 (0xe bytes), align: 1
  Segment part 136.           Intra module refs:   Segment part 50
    -------------------------------------------------------------------------
NEAR_CONST_ID
  Relative segment, address: 000031B2 - 000031BF (0xe bytes), align: 1
  Segment part 137.           Intra module refs:   Segment part 51
    -------------------------------------------------------------------------
NEAR_CONST_ID
  Relative segment, address: 000031C0 - 000031CB (0xc bytes), align: 1
  Segment part 138.           Intra module refs:   Segment part 52

    *************************************************************************

  FILE NAME : C:\Users\Steve\Dropbox\Kiln\CustomerProjects\RenesasDemo\Factory_Demo_Whisker\YRDKRL78G14\Debug\Obj\App_WhiskerGW.r87
  PROGRAM MODULE, NAME : App_WhiskerGW

  SEGMENTS IN THE MODULE
  ======================
NEAR_Z
  Relative segment, address: 000FA0E8 - 000FA17F (0x98 bytes), align: 1
  Segment part 52.            Intra module refs:   App_ConnectMqtt
                                                   App_WhiskerGW
           ENTRY                   ADDRESS         REF BY
           =====                   =======         ======
           broker                  000FA0E8 
    -------------------------------------------------------------------------
NEAR_Z
  Relative segment, address: 000FA180 - 000FA181 (0x2 bytes), align: 1
  Segment part 53.            Intra module refs:   App_ConnectMqtt
                                                   App_WhiskerGW
           ENTRY                   ADDRESS         REF BY
           =====                   =======         ======
           mqttConnected           000FA180 
    -------------------------------------------------------------------------
NEAR_Z
  Relative segment, address: 000FA182 - 000FA193 (0x12 bytes), align: 1
  Segment part 54.            Intra module refs:   App_WhiskerGW
                                                   WIFI_init
           LOCAL                   ADDRESS         
           =====                   =======         
           WifiMAC                 000FA182 
    -------------------------------------------------------------------------
NEAR_I
  Relative segment, address: 000F9F00 - 000F9F47 (0x48 bytes), align: 1
  Segment part 55.            Intra module refs:   findModule
           ENTRY                   ADDRESS         REF BY
           =====                   =======         ======
           moduleList              000F9F00 
    -------------------------------------------------------------------------
CODE
  Relative segment, address: 00005137 - 00005185 (0x4f bytes), align: 0
  Segment part 62.            Intra module refs:   App_WhiskerGW
           ENTRY                   ADDRESS         REF BY
           =====                   =======         ======
           RSSIReading             00005137 
               calls direct
               CSTACK = 00000000 ( 0000001C )
    -------------------------------------------------------------------------
CODE
  Relative segment, address: 00005186 - 00005311 (0x18c bytes), align: 0
  Segment part 63.            Intra module refs:   App_WhiskerGW
           ENTRY                   ADDRESS         REF BY
           =====                   =======         ======
           WIFI_init               00005186 
               calls direct
               CSTACK = 00000000 ( 00000006 )
    -------------------------------------------------------------------------
CODE
  Relative segment, address: 00005312 - 0000537A (0x69 bytes), align: 0
  Segment part 64.            Intra module refs:   App_WhiskerGW
                                                   WIFI_Associate
           ENTRY                   ADDRESS         REF BY
           =====                   =======         ======
           App_ConnectMqtt         00005312 
               calls direct
               CSTACK = 00000000 ( 00000006 )
    -------------------------------------------------------------------------
CODE
  Relative segment, address: 0000537B - 00005440 (0xc6 bytes), align: 0
  Segment part 65.            Intra module refs:   App_WhiskerGW
           ENTRY                   ADDRESS         REF BY
           =====                   =======         ======
           WIFI_Associate          0000537B 
               calls direct
               CSTACK = 00000000 ( 00000006 )
    -------------------------------------------------------------------------
NEAR_I
  Relative segment, address: 000FA03E - 000FA03E (0x1 bytes), align: 0
  Segment part 59.            Intra module refs:   WIFI_Associate
           LOCAL                   ADDRESS         
           =====                   =======         
           WIFI_Associate::WEPMode
                                   000FA03E 
    -------------------------------------------------------------------------
CODE
  Relative segment, address: 00005441 - 00005493 (0x53 bytes), align: 0
  Segment part 66.            Intra module refs:   App_WhiskerGW
           ENTRY                   ADDRESS         REF BY
           =====                   =======         ======
           findModule              00005441 
               CSTACK = 00000000 ( 0000000A )
    -------------------------------------------------------------------------
CODE
  Relative segment, address: 00005494 - 00005494 (0x1 bytes), align: 0
  Segment part 67.            Intra module refs:   App_WhiskerGW
           ENTRY                   ADDRESS         REF BY
           =====                   =======         ======
           App_MQTTMsgPublished    00005494 
    -------------------------------------------------------------------------
CODE
  Relative segment, address: 00005495 - 00005C70 (0x7dc bytes), align: 0
  Segment part 68.
           ENTRY                   ADDRESS         REF BY
           =====                   =======         ======
           App_WhiskerGW           00005495        main (main)
               calls direct
               CSTACK = 00000000 ( 00000202 )
    -------------------------------------------------------------------------
NEAR_ID
  Relative segment, address: 0000B5F6 - 0000B63D (0x48 bytes), align: 1
  Segment part 56.            Intra module refs:   moduleList
    -------------------------------------------------------------------------
NEAR_ID
  Relative segment, address: 0000B734 - 0000B734 (0x1 bytes), align: 0
  Segment part 60.            Intra module refs:   WIFI_Associate::WEPMode
    -------------------------------------------------------------------------
NEAR_CONST
  Relative segment, address: 000F31CC - 000F31D7 (0xc bytes), align: 1
  Segment part 2.             Intra module refs:   RSSIReading
    -------------------------------------------------------------------------
NEAR_CONST
  Relative segment, address: 000F31D8 - 000F31E3 (0xc bytes), align: 1
  Segment part 3.             Intra module refs:   RSSIReading
    -------------------------------------------------------------------------
NEAR_CONST
  Relative segment, address: 000F31E4 - 000F31F1 (0xe bytes), align: 1
  Segment part 4.             Intra module refs:   WIFI_init
    -------------------------------------------------------------------------
NEAR_CONST
  Relative segment, address: 000F31F2 - 000F31FF (0xe bytes), align: 1
  Segment part 5.             Intra module refs:   WIFI_init
    -------------------------------------------------------------------------
NEAR_CONST
  Relative segment, address: 000F3200 - 000F320D (0xe bytes), align: 1
  Segment part 6.             Intra module refs:   WIFI_init
    -------------------------------------------------------------------------
NEAR_CONST
  Relative segment, address: 000F320E - 000F321B (0xe bytes), align: 1
  Segment part 7.             Intra module refs:   WIFI_init
    -------------------------------------------------------------------------
NEAR_CONST
  Relative segment, address: 000F321C - 000F3229 (0xe bytes), align: 1
  Segment part 8.             Intra module refs:   WIFI_init
    -------------------------------------------------------------------------
NEAR_CONST
  Relative segment, address: 000F322A - 000F3237 (0xe bytes), align: 1
  Segment part 9.             Intra module refs:   WIFI_init
    -------------------------------------------------------------------------
NEAR_CONST
  Relative segment, address: 000F3238 - 000F3245 (0xe bytes), align: 1
  Segment part 10.            Intra module refs:   WIFI_init
    -------------------------------------------------------------------------
NEAR_CONST
  Relative segment, address: 000F3246 - 000F324D (0x8 bytes), align: 1
  Segment part 11.            Intra module refs:   WIFI_init
    -------------------------------------------------------------------------
NEAR_CONST
  Relative segment, address: 000F324E - 000F325B (0xe bytes), align: 1
  Segment part 12.            Intra module refs:   WIFI_init
    -------------------------------------------------------------------------
NEAR_CONST
  Relative segment, address: 000F325C - 000F3269 (0xe bytes), align: 1
  Segment part 13.            Intra module refs:   WIFI_init
    -------------------------------------------------------------------------
NEAR_CONST
  Relative segment, address: 000F326A - 000F3279 (0x10 bytes), align: 1
  Segment part 14.            Intra module refs:   WIFI_Associate
                                                   WIFI_init
    -------------------------------------------------------------------------
NEAR_CONST
  Relative segment, address: 000F327A - 000F3285 (0xc bytes), align: 1
  Segment part 15.            Intra module refs:   WIFI_init
    -------------------------------------------------------------------------
NEAR_CONST
  Relative segment, address: 000F3286 - 000F3293 (0xe bytes), align: 1
  Segment part 16.            Intra module refs:   WIFI_init
    -------------------------------------------------------------------------
NEAR_CONST
  Relative segment, address: 000F3294 - 000F329F (0xc bytes), align: 1
  Segment part 17.            Intra module refs:   App_ConnectMqtt
    -------------------------------------------------------------------------
NEAR_CONST
  Relative segment, address: 000F32A0 - 000F32C5 (0x26 bytes), align: 1
  Segment part 18.            Intra module refs:   App_ConnectMqtt
    -------------------------------------------------------------------------
NEAR_CONST
  Relative segment, address: 000F32C6 - 000F32E7 (0x22 bytes), align: 1
  Segment part 19.            Intra module refs:   App_ConnectMqtt
    -------------------------------------------------------------------------
NEAR_CONST
  Relative segment, address: 000F32E8 - 000F32F9 (0x12 bytes), align: 1
  Segment part 20.            Intra module refs:   App_ConnectMqtt
                                                   WIFI_Associate
    -------------------------------------------------------------------------
NEAR_CONST
  Relative segment, address: 000F32FA - 000F3307 (0xe bytes), align: 1
  Segment part 21.            Intra module refs:   WIFI_Associate
    -------------------------------------------------------------------------
NEAR_CONST
  Relative segment, address: 000F3308 - 000F3317 (0x10 bytes), align: 1
  Segment part 22.            Intra module refs:   WIFI_Associate
    -------------------------------------------------------------------------
NEAR_CONST
  Relative segment, address: 000F3318 - 000F3327 (0x10 bytes), align: 1
  Segment part 23.            Intra module refs:   WIFI_Associate
    -------------------------------------------------------------------------
NEAR_CONST
  Relative segment, address: 000F3328 - 000F3335 (0xe bytes), align: 1
  Segment part 24.            Intra module refs:   WIFI_Associate
    -------------------------------------------------------------------------
NEAR_CONST
  Relative segment, address: 000F3336 - 000F3345 (0x10 bytes), align: 1
  Segment part 25.            Intra module refs:   WIFI_Associate
    -------------------------------------------------------------------------
NEAR_CONST
  Relative segment, address: 000F3346 - 000F3359 (0x14 bytes), align: 1
  Segment part 26.            Intra module refs:   WIFI_Associate
    -------------------------------------------------------------------------
NEAR_CONST
  Relative segment, address: 000F335A - 000F3369 (0x10 bytes), align: 1
  Segment part 27.            Intra module refs:   App_WhiskerGW
    -------------------------------------------------------------------------
NEAR_CONST
  Relative segment, address: 000F336A - 000F337D (0x14 bytes), align: 1
  Segment part 28.            Intra module refs:   App_WhiskerGW
    -------------------------------------------------------------------------
NEAR_CONST
  Relative segment, address: 000F337E - 000F3383 (0x6 bytes), align: 1
  Segment part 29.            Intra module refs:   App_WhiskerGW
    -------------------------------------------------------------------------
NEAR_CONST
  Relative segment, address: 000F3384 - 000F3389 (0x6 bytes), align: 1
  Segment part 30.            Intra module refs:   App_WhiskerGW
    -------------------------------------------------------------------------
NEAR_CONST
  Relative segment, address: 000F338A - 000F338D (0x4 bytes), align: 1
  Segment part 31.            Intra module refs:   App_WhiskerGW
    -------------------------------------------------------------------------
NEAR_CONST
  Relative segment, address: 000F338E - 000F3395 (0x8 bytes), align: 1
  Segment part 32.            Intra module refs:   App_WhiskerGW
    -------------------------------------------------------------------------
NEAR_CONST
  Relative segment, address: 000F3396 - 000F339B (0x6 bytes), align: 1
  Segment part 33.            Intra module refs:   App_WhiskerGW
    -------------------------------------------------------------------------
NEAR_CONST
  Relative segment, address: 000F339C - 000F33A7 (0xc bytes), align: 1
  Segment part 34.            Intra module refs:   App_WhiskerGW
    -------------------------------------------------------------------------
NEAR_CONST
  Relative segment, address: 000F33A8 - 000F33AD (0x6 bytes), align: 1
  Segment part 35.            Intra module refs:   App_WhiskerGW
    -------------------------------------------------------------------------
NEAR_CONST
  Relative segment, address: 000F33AE - 000F33B3 (0x6 bytes), align: 1
  Segment part 36.            Intra module refs:   App_WhiskerGW
    -------------------------------------------------------------------------
NEAR_CONST
  Relative segment, address: 000F33B4 - 000F33B9 (0x6 bytes), align: 1
  Segment part 37.            Intra module refs:   App_WhiskerGW
    -------------------------------------------------------------------------
NEAR_CONST
  Relative segment, address: 000F33BA - 000F33BF (0x6 bytes), align: 1
  Segment part 38.            Intra module refs:   App_WhiskerGW
    -------------------------------------------------------------------------
NEAR_CONST
  Relative segment, address: 000F33C0 - 000F33C7 (0x8 bytes), align: 1
  Segment part 39.            Intra module refs:   App_WhiskerGW
    -------------------------------------------------------------------------
NEAR_CONST
  Relative segment, address: 000F33C8 - 000F33D3 (0xc bytes), align: 1
  Segment part 40.            Intra module refs:   App_WhiskerGW
    -------------------------------------------------------------------------
NEAR_CONST
  Relative segment, address: 000F33D4 - 000F33D7 (0x4 bytes), align: 1
  Segment part 41.            Intra module refs:   App_WhiskerGW
    -------------------------------------------------------------------------
NEAR_CONST
  Relative segment, address: 000F33D8 - 000F33DF (0x8 bytes), align: 1
  Segment part 42.            Intra module refs:   App_WhiskerGW
    -------------------------------------------------------------------------
NEAR_CONST
  Relative segment, address: 000F33E0 - 000F33E7 (0x8 bytes), align: 1
  Segment part 43.            Intra module refs:   App_WhiskerGW
    -------------------------------------------------------------------------
NEAR_CONST
  Relative segment, address: 000F33E8 - 000F33EF (0x8 bytes), align: 1
  Segment part 44.            Intra module refs:   App_WhiskerGW
    -------------------------------------------------------------------------
NEAR_CONST
  Relative segment, address: 000F33F0 - 000F33F7 (0x8 bytes), align: 1
  Segment part 45.            Intra module refs:   App_WhiskerGW
    -------------------------------------------------------------------------
NEAR_CONST
  Relative segment, address: 000F33F8 - 000F33F9 (0x2 bytes), align: 1
  Segment part 46.            Intra module refs:   App_WhiskerGW
    -------------------------------------------------------------------------
NEAR_CONST
  Relative segment, address: 000F33FA - 000F33FF (0x6 bytes), align: 1
  Segment part 47.            Intra module refs:   App_WhiskerGW
    -------------------------------------------------------------------------
NEAR_CONST
  Relative segment, address: 000F3400 - 000F3415 (0x16 bytes), align: 1
  Segment part 48.            Intra module refs:   App_WhiskerGW
    -------------------------------------------------------------------------
NEAR_CONST
  Relative segment, address: 000F3416 - 000F3421 (0xc bytes), align: 1
  Segment part 49.            Intra module refs:   App_WhiskerGW
    -------------------------------------------------------------------------
NEAR_CONST
  Relative segment, address: 000F3422 - 000F3425 (0x4 bytes), align: 1
  Segment part 50.            Intra module refs:   App_WhiskerGW
    -------------------------------------------------------------------------
NEAR_CONST
  Relative segment, address: 000F3426 - 000F342F (0xa bytes), align: 1
  Segment part 51.            Intra module refs:   App_WhiskerGW
    -------------------------------------------------------------------------
NEAR_CONST_ID
  Relative segment, address: 000031CC - 000031D7 (0xc bytes), align: 1
  Segment part 69.            Intra module refs:   Segment part 2
    -------------------------------------------------------------------------
NEAR_CONST_ID
  Relative segment, address: 000031D8 - 000031E3 (0xc bytes), align: 1
  Segment part 70.            Intra module refs:   Segment part 3
    -------------------------------------------------------------------------
NEAR_CONST_ID
  Relative segment, address: 000031E4 - 000031F1 (0xe bytes), align: 1
  Segment part 71.            Intra module refs:   Segment part 4
    -------------------------------------------------------------------------
NEAR_CONST_ID
  Relative segment, address: 000031F2 - 000031FF (0xe bytes), align: 1
  Segment part 72.            Intra module refs:   Segment part 5
    -------------------------------------------------------------------------
NEAR_CONST_ID
  Relative segment, address: 00003200 - 0000320D (0xe bytes), align: 1
  Segment part 73.            Intra module refs:   Segment part 6
    -------------------------------------------------------------------------
NEAR_CONST_ID
  Relative segment, address: 0000320E - 0000321B (0xe bytes), align: 1
  Segment part 74.            Intra module refs:   Segment part 7
    -------------------------------------------------------------------------
NEAR_CONST_ID
  Relative segment, address: 0000321C - 00003229 (0xe bytes), align: 1
  Segment part 75.            Intra module refs:   Segment part 8
    -------------------------------------------------------------------------
NEAR_CONST_ID
  Relative segment, address: 0000322A - 00003237 (0xe bytes), align: 1
  Segment part 76.            Intra module refs:   Segment part 9
    -------------------------------------------------------------------------
NEAR_CONST_ID
  Relative segment, address: 00003238 - 00003245 (0xe bytes), align: 1
  Segment part 77.            Intra module refs:   Segment part 10
    -------------------------------------------------------------------------
NEAR_CONST_ID
  Relative segment, address: 00003246 - 0000324D (0x8 bytes), align: 1
  Segment part 78.            Intra module refs:   Segment part 11
    -------------------------------------------------------------------------
NEAR_CONST_ID
  Relative segment, address: 0000324E - 0000325B (0xe bytes), align: 1
  Segment part 79.            Intra module refs:   Segment part 12
    -------------------------------------------------------------------------
NEAR_CONST_ID
  Relative segment, address: 0000325C - 00003269 (0xe bytes), align: 1
  Segment part 80.            Intra module refs:   Segment part 13
    -------------------------------------------------------------------------
NEAR_CONST_ID
  Relative segment, address: 0000326A - 00003279 (0x10 bytes), align: 1
  Segment part 81.            Intra module refs:   Segment part 14
    -------------------------------------------------------------------------
NEAR_CONST_ID
  Relative segment, address: 0000327A - 00003285 (0xc bytes), align: 1
  Segment part 82.            Intra module refs:   Segment part 15
    -------------------------------------------------------------------------
NEAR_CONST_ID
  Relative segment, address: 00003286 - 00003293 (0xe bytes), align: 1
  Segment part 83.            Intra module refs:   Segment part 16
    -------------------------------------------------------------------------
NEAR_CONST_ID
  Relative segment, address: 00003294 - 0000329F (0xc bytes), align: 1
  Segment part 84.            Intra module refs:   Segment part 17
    -------------------------------------------------------------------------
NEAR_CONST_ID
  Relative segment, address: 000032A0 - 000032C5 (0x26 bytes), align: 1
  Segment part 85.            Intra module refs:   Segment part 18
    -------------------------------------------------------------------------
NEAR_CONST_ID
  Relative segment, address: 000032C6 - 000032E7 (0x22 bytes), align: 1
  Segment part 86.            Intra module refs:   Segment part 19
    -------------------------------------------------------------------------
NEAR_CONST_ID
  Relative segment, address: 000032E8 - 000032F9 (0x12 bytes), align: 1
  Segment part 87.            Intra module refs:   Segment part 20
    -------------------------------------------------------------------------
NEAR_CONST_ID
  Relative segment, address: 000032FA - 00003307 (0xe bytes), align: 1
  Segment part 88.            Intra module refs:   Segment part 21
    -------------------------------------------------------------------------
NEAR_CONST_ID
  Relative segment, address: 00003308 - 00003317 (0x10 bytes), align: 1
  Segment part 89.            Intra module refs:   Segment part 22
    -------------------------------------------------------------------------
NEAR_CONST_ID
  Relative segment, address: 00003318 - 00003327 (0x10 bytes), align: 1
  Segment part 90.            Intra module refs:   Segment part 23
    -------------------------------------------------------------------------
NEAR_CONST_ID
  Relative segment, address: 00003328 - 00003335 (0xe bytes), align: 1
  Segment part 91.            Intra module refs:   Segment part 24
    -------------------------------------------------------------------------
NEAR_CONST_ID
  Relative segment, address: 00003336 - 00003345 (0x10 bytes), align: 1
  Segment part 92.            Intra module refs:   Segment part 25
    -------------------------------------------------------------------------
NEAR_CONST_ID
  Relative segment, address: 00003346 - 00003359 (0x14 bytes), align: 1
  Segment part 93.            Intra module refs:   Segment part 26
    -------------------------------------------------------------------------
NEAR_CONST_ID
  Relative segment, address: 0000335A - 00003369 (0x10 bytes), align: 1
  Segment part 94.            Intra module refs:   Segment part 27
    -------------------------------------------------------------------------
NEAR_CONST_ID
  Relative segment, address: 0000336A - 0000337D (0x14 bytes), align: 1
  Segment part 95.            Intra module refs:   Segment part 28
    -------------------------------------------------------------------------
NEAR_CONST_ID
  Relative segment, address: 0000337E - 00003383 (0x6 bytes), align: 1
  Segment part 96.            Intra module refs:   Segment part 29
    -------------------------------------------------------------------------
NEAR_CONST_ID
  Relative segment, address: 00003384 - 00003389 (0x6 bytes), align: 1
  Segment part 97.            Intra module refs:   Segment part 30
    -------------------------------------------------------------------------
NEAR_CONST_ID
  Relative segment, address: 0000338A - 0000338D (0x4 bytes), align: 1
  Segment part 98.            Intra module refs:   Segment part 31
    -------------------------------------------------------------------------
NEAR_CONST_ID
  Relative segment, address: 0000338E - 00003395 (0x8 bytes), align: 1
  Segment part 99.            Intra module refs:   Segment part 32
    -------------------------------------------------------------------------
NEAR_CONST_ID
  Relative segment, address: 00003396 - 0000339B (0x6 bytes), align: 1
  Segment part 100.           Intra module refs:   Segment part 33
    -------------------------------------------------------------------------
NEAR_CONST_ID
  Relative segment, address: 0000339C - 000033A7 (0xc bytes), align: 1
  Segment part 101.           Intra module refs:   Segment part 34
    -------------------------------------------------------------------------
NEAR_CONST_ID
  Relative segment, address: 000033A8 - 000033AD (0x6 bytes), align: 1
  Segment part 102.           Intra module refs:   Segment part 35
    -------------------------------------------------------------------------
NEAR_CONST_ID
  Relative segment, address: 000033AE - 000033B3 (0x6 bytes), align: 1
  Segment part 103.           Intra module refs:   Segment part 36
    -------------------------------------------------------------------------
NEAR_CONST_ID
  Relative segment, address: 000033B4 - 000033B9 (0x6 bytes), align: 1
  Segment part 104.           Intra module refs:   Segment part 37
    -------------------------------------------------------------------------
NEAR_CONST_ID
  Relative segment, address: 000033BA - 000033BF (0x6 bytes), align: 1
  Segment part 105.           Intra module refs:   Segment part 38
    -------------------------------------------------------------------------
NEAR_CONST_ID
  Relative segment, address: 000033C0 - 000033C7 (0x8 bytes), align: 1
  Segment part 106.           Intra module refs:   Segment part 39
    -------------------------------------------------------------------------
NEAR_CONST_ID
  Relative segment, address: 000033C8 - 000033D3 (0xc bytes), align: 1
  Segment part 107.           Intra module refs:   Segment part 40
    -------------------------------------------------------------------------
NEAR_CONST_ID
  Relative segment, address: 000033D4 - 000033D7 (0x4 bytes), align: 1
  Segment part 108.           Intra module refs:   Segment part 41
    -------------------------------------------------------------------------
NEAR_CONST_ID
  Relative segment, address: 000033D8 - 000033DF (0x8 bytes), align: 1
  Segment part 109.           Intra module refs:   Segment part 42
    -------------------------------------------------------------------------
NEAR_CONST_ID
  Relative segment, address: 000033E0 - 000033E7 (0x8 bytes), align: 1
  Segment part 110.           Intra module refs:   Segment part 43
    -------------------------------------------------------------------------
NEAR_CONST_ID
  Relative segment, address: 000033E8 - 000033EF (0x8 bytes), align: 1
  Segment part 111.           Intra module refs:   Segment part 44
    -------------------------------------------------------------------------
NEAR_CONST_ID
  Relative segment, address: 000033F0 - 000033F7 (0x8 bytes), align: 1
  Segment part 112.           Intra module refs:   Segment part 45
    -------------------------------------------------------------------------
NEAR_CONST_ID
  Relative segment, address: 000033F8 - 000033F9 (0x2 bytes), align: 1
  Segment part 113.           Intra module refs:   Segment part 46
    -------------------------------------------------------------------------
NEAR_CONST_ID
  Relative segment, address: 000033FA - 000033FF (0x6 bytes), align: 1
  Segment part 114.           Intra module refs:   Segment part 47
    -------------------------------------------------------------------------
NEAR_CONST_ID
  Relative segment, address: 00003400 - 00003415 (0x16 bytes), align: 1
  Segment part 115.           Intra module refs:   Segment part 48
    -------------------------------------------------------------------------
NEAR_CONST_ID
  Relative segment, address: 00003416 - 00003421 (0xc bytes), align: 1
  Segment part 116.           Intra module refs:   Segment part 49
    -------------------------------------------------------------------------
NEAR_CONST_ID
  Relative segment, address: 00003422 - 00003425 (0x4 bytes), align: 1
  Segment part 117.           Intra module refs:   Segment part 50
    -------------------------------------------------------------------------
NEAR_CONST_ID
  Relative segment, address: 00003426 - 0000342F (0xa bytes), align: 1
  Segment part 118.           Intra module refs:   Segment part 51

    *************************************************************************

  FILE NAME : C:\Users\Steve\Dropbox\Kiln\CustomerProjects\RenesasDemo\Factory_Demo_Whisker\YRDKRL78G14\Debug\Obj\AtCmdLib.r87
  PROGRAM MODULE, NAME : AtCmdLib

  SEGMENTS IN THE MODULE
  ======================
CODE
  Relative segment, address: 00005C71 - 00005C7F (0xf bytes), align: 0
  Segment part 254.           Intra module refs:   AtLibGs_GetWebProvSettings
                                                   AtLibGs_ParseIPv4Address
           ENTRY                   ADDRESS         REF BY
           =====                   =======         ======
           strchr                  00005C71 
               calls direct
               CSTACK = 00000000 ( 00000004 )
    -------------------------------------------------------------------------
NEAR_CONST
  Relative segment, address: 000F3430 - 000F344F (0x20 bytes), align: 1
  Segment part 224.           Intra module refs:   AtLibGs_ReceiveDataProcess
           ENTRY                   ADDRESS         REF BY
           =====                   =======         ======
           str_URL                 000F3430 
    -------------------------------------------------------------------------
NEAR_CONST
  Relative segment, address: 000F3450 - 000F345F (0x10 bytes), align: 1
  Segment part 225.           Intra module refs:   AtLibGs_ReceiveDataProcess
           ENTRY                   ADDRESS         REF BY
           =====                   =======         ======
           str_rootTag             000F3450 
    -------------------------------------------------------------------------
NEAR_Z
  Relative segment, address: 000FA194 - 000FA393 (0x200 bytes), align: 1
  Segment part 226.           Intra module refs:   AtLibGs_FlushRxBuffer
                                                   AtLibGs_GetMAC
                                                   AtLibGs_ParseDNSLookupResponse
                                                   AtLibGs_ParseGetMacResponse
                                                   AtLibGs_ParseRssiResponse
                                                   AtLibGs_ReceiveDataProcess
                                                   AtLibGs_TCPClientStart
           ENTRY                   ADDRESS         REF BY
           =====                   =======         ======
           MRBuffer                000FA194        App_StartupLimitedAP (App_Startup)
    -------------------------------------------------------------------------
NEAR_Z
  Relative segment, address: 000FA394 - 000FA395 (0x2 bytes), align: 1
  Segment part 227.           Intra module refs:   AtLibGs_FlushRxBuffer
                                                   AtLibGs_ReceiveDataProcess
           ENTRY                   ADDRESS         REF BY
           =====                   =======         ======
           MRBufferIndex           000FA394 
    -------------------------------------------------------------------------
NEAR_Z
  Relative segment, address: 000FAFD0 - 000FAFD0 (0x1 bytes), align: 0
  Segment part 228.           Intra module refs:   AtLibGs_ClearNodeAssociationFlag
                                                   AtLibGs_Init
                                                   AtLibGs_IsNodeAssociated
                                                   AtLibGs_SetNodeAssociationFlag
           LOCAL                   ADDRESS         
           =====                   =======         
           nodeAssociationFlag     000FAFD0 
    -------------------------------------------------------------------------
NEAR_Z
  Relative segment, address: 000FAFD1 - 000FAFD1 (0x1 bytes), align: 0
  Segment part 229.           Intra module refs:   AtLibGs_Init
                                                   AtLibGs_SetNodeResetFlag
           LOCAL                   ADDRESS         
           =====                   =======         
           nodeResetFlag           000FAFD1 
    -------------------------------------------------------------------------
CODE
  Relative segment, address: 00005C80 - 00005C86 (0x7 bytes), align: 0
  Segment part 256.
           ENTRY                   ADDRESS         REF BY
           =====                   =======         ======
           AtLibGs_Check           00005C80        App_InitModule (App_Startup)
                                                   WIFI_init (App_WhiskerGW)
               calls direct
    -------------------------------------------------------------------------
CODE
  Relative segment, address: 00005C87 - 00005CA8 (0x22 bytes), align: 0
  Segment part 257.
           ENTRY                   ADDRESS         REF BY
           =====                   =======         ======
           AtLibGs_SetEcho         00005C87        App_InitModule (App_Startup)
                                                   WIFI_init (App_WhiskerGW)
               calls direct
               CSTACK = 00000000 ( 00000010 )
    -------------------------------------------------------------------------
CODE
  Relative segment, address: 00005CA9 - 00005CE1 (0x39 bytes), align: 0
  Segment part 260.
           ENTRY                   ADDRESS         REF BY
           =====                   =======         ======
           AtLibGs_GetMAC          00005CA9        App_WebProvisioning_OverAirPush (App_Startup)
                                                   WIFI_init (App_WhiskerGW)
               calls direct
               CSTACK = 00000000 ( 0000000C )
    -------------------------------------------------------------------------
CODE
  Relative segment, address: 00005CE2 - 00005D03 (0x22 bytes), align: 0
  Segment part 262.
           ENTRY                   ADDRESS         REF BY
           =====                   =======         ======
           AtLibGs_SetWEP1         00005CE2        WIFI_init (App_WhiskerGW)
               calls direct
               CSTACK = 00000000 ( 00000030 )
    -------------------------------------------------------------------------
CODE
  Relative segment, address: 00005D04 - 00005D24 (0x21 bytes), align: 0
  Segment part 263.
           ENTRY                   ADDRESS         REF BY
           =====                   =======         ======
           AtLibGs_CalcNStorePSK   00005D04        WIFI_init (App_WhiskerGW)
               calls direct
               CSTACK = 00000000 ( 0000003A )
    -------------------------------------------------------------------------
CODE
  Relative segment, address: 00005D25 - 00005D46 (0x22 bytes), align: 0
  Segment part 265.
           ENTRY                   ADDRESS         REF BY
           =====                   =======         ======
           AtLibGs_DHCPSet         00005D25        WIFI_init (App_WhiskerGW)
               calls direct
               CSTACK = 00000000 ( 0000001A )
    -------------------------------------------------------------------------
CODE
  Relative segment, address: 00005D47 - 00005D90 (0x4a bytes), align: 0
  Segment part 266.
           ENTRY                   ADDRESS         REF BY
           =====                   =======         ======
           AtLibGs_Assoc           00005D47        App_StartupLimitedAP (App_Startup)
                                                   WIFI_Associate (App_WhiskerGW)
               calls direct
               CSTACK = 00000000 ( 0000006E )
    -------------------------------------------------------------------------
CODE
  Relative segment, address: 00005D91 - 00005DEB (0x5b bytes), align: 0
  Segment part 267.
           ENTRY                   ADDRESS         REF BY
           =====                   =======         ======
           AtLibGs_TCPClientStart
                                   00005D91        init_socket (mqtt)
               calls direct
               CSTACK = 00000000 ( 0000005C )
    -------------------------------------------------------------------------
CODE
  Relative segment, address: 00005DEC - 00005E0C (0x21 bytes), align: 0
  Segment part 276.
           ENTRY                   ADDRESS         REF BY
           =====                   =======         ======
           AtLibGs_IPSet           00005DEC        App_StartupLimitedAP (App_Startup)
               calls direct
               CSTACK = 00000000 ( 00000046 )
    -------------------------------------------------------------------------
CODE
  Relative segment, address: 00005E0D - 00005E13 (0x7 bytes), align: 0
  Segment part 280.
           ENTRY                   ADDRESS         REF BY
           =====                   =======         ======
           AtLibGs_GetRssi         00005E0D        RSSIReading (App_WhiskerGW)
               calls direct
    -------------------------------------------------------------------------
CODE
  Relative segment, address: 00005E14 - 00005E1A (0x7 bytes), align: 0
  Segment part 281.
           ENTRY                   ADDRESS         REF BY
           =====                   =======         ======
           AtLibGs_DisAssoc        00005E14        App_StartupLimitedAP (App_Startup)
                                                   WIFI_init (App_WhiskerGW)
               calls direct
    -------------------------------------------------------------------------
CODE
  Relative segment, address: 00005E1B - 00005E21 (0x7 bytes), align: 0
  Segment part 285.
           ENTRY                   ADDRESS         REF BY
           =====                   =======         ======
           AtLibGs_Version         00005E1B        App_StartupLimitedAP (App_Startup)
                                                   WIFI_init (App_WhiskerGW)
               calls direct
    -------------------------------------------------------------------------
CODE
  Relative segment, address: 00005E22 - 00005E43 (0x22 bytes), align: 0
  Segment part 286.
           ENTRY                   ADDRESS         REF BY
           =====                   =======         ======
           AtLibGs_Mode            00005E22        App_StartupLimitedAP (App_Startup)
               calls direct
               CSTACK = 00000000 ( 00000024 )
    -------------------------------------------------------------------------
CODE
  Relative segment, address: 00005E44 - 00005E61 (0x1e bytes), align: 0
  Segment part 289.
           ENTRY                   ADDRESS         REF BY
           =====                   =======         ======
           AtLibGs_DNSLookup       00005E44        init_socket (mqtt)
               calls direct
               CSTACK = 00000000 ( 00000036 )
    -------------------------------------------------------------------------
CODE
  Relative segment, address: 00005E62 - 00005E83 (0x22 bytes), align: 0
  Segment part 293.
           ENTRY                   ADDRESS         REF BY
           =====                   =======         ======
           AtLibGs_EnableRadio     00005E62        App_StartupLimitedAP (App_Startup)
                                                   WIFI_init (App_WhiskerGW)
               calls direct
               CSTACK = 00000000 ( 00000024 )
    -------------------------------------------------------------------------
CODE
  Relative segment, address: 00005E84 - 00005EA5 (0x22 bytes), align: 0
  Segment part 297.
           ENTRY                   ADDRESS         REF BY
           =====                   =======         ======
           AtLibGs_ConfigAntenna   00005E84        App_StartupLimitedAP (App_Startup)
               calls direct
               CSTACK = 00000000 ( 0000001A )
    -------------------------------------------------------------------------
CODE
  Relative segment, address: 00005EA6 - 00005F25 (0x80 bytes), align: 0
  Segment part 311.           Intra module refs:   AtLibGs_GetMAC
           ENTRY                   ADDRESS         REF BY
           =====                   =======         ======
           AtLibGs_ParseIntoLines
                                   00005EA6 
               CSTACK = 00000000 ( 0000000E )
    -------------------------------------------------------------------------
CODE
  Relative segment, address: 00005F26 - 00005F99 (0x74 bytes), align: 0
  Segment part 315.
           ENTRY                   ADDRESS         REF BY
           =====                   =======         ======
           AtLibGs_ParseGetMacResponse
                                   00005F26        App_WebProvisioning_OverAirPush (App_Startup)
                                                   WIFI_init (App_WhiskerGW)
               calls direct
               CSTACK = 00000000 ( 0000001C )
    -------------------------------------------------------------------------
CODE
  Relative segment, address: 00005F9A - 00006001 (0x68 bytes), align: 0
  Segment part 317.           Intra module refs:   AtLibGs_GetWebProvSettings
           ENTRY                   ADDRESS         REF BY
           =====                   =======         ======
           AtLibGs_ParseIPv4Address
                                   00005F9A 
               calls direct
               CSTACK = 00000000 ( 00000008 )
    -------------------------------------------------------------------------
CODE
  Relative segment, address: 00006002 - 0000602C (0x2b bytes), align: 0
  Segment part 318.
           ENTRY                   ADDRESS         REF BY
           =====                   =======         ======
           AtLibGs_ParseRssiResponse
                                   00006002        RSSIReading (App_WhiskerGW)
               calls direct
               CSTACK = 00000000 ( 00000006 )
    -------------------------------------------------------------------------
CODE
  Relative segment, address: 0000602D - 00006061 (0x35 bytes), align: 0
  Segment part 319.
           ENTRY                   ADDRESS         REF BY
           =====                   =======         ======
           AtLibGs_ParseDNSLookupResponse
                                   0000602D        init_socket (mqtt)
               calls direct
               CSTACK = 00000000 ( 0000000A )
    -------------------------------------------------------------------------
CODE
  Relative segment, address: 00006062 - 00006073 (0x12 bytes), align: 0
  Segment part 320.           Intra module refs:   AtLibGs_AnnounceMDNS
                                                   AtLibGs_Assoc
                                                   AtLibGs_CalcNStorePSK
                                                   AtLibGs_Check
                                                   AtLibGs_ConfigAntenna
                                                   AtLibGs_DHCPSet
                                                   AtLibGs_DNSLookup
                                                   AtLibGs_DisAssoc
                                                   AtLibGs_DisableDHCPServer
                                                   AtLibGs_EnableDHCPServer
                                                   AtLibGs_EnableRadio
                                                   AtLibGs_GetMAC
                                                   AtLibGs_GetRssi
                                                   AtLibGs_IPSet
                                                   AtLibGs_Mode
                                                   AtLibGs_RegisterMDNSHost
                                                   AtLibGs_RegisterMDNSService
                                                   AtLibGs_SetAuthentictionMode
                                                   AtLibGs_SetEcho
                                                   AtLibGs_SetSecurity
                                                   AtLibGs_SetWEP1
                                                   AtLibGs_StartMDNS
                                                   AtLibGs_TCPClientStart
                                                   AtLibGs_Version
                                                   AtLibGs_WebProv
           ENTRY                   ADDRESS         REF BY
           =====                   =======         ======
           AtLibGs_CommandSendString
                                   00006062 
               calls direct
               CSTACK = 00000000 ( 00000004 )
    -------------------------------------------------------------------------
CODE
  Relative segment, address: 00006074 - 00006082 (0xf bytes), align: 0
  Segment part 321.           Intra module refs:   AtLibGs_SendTCPData
                                                   AtLib_GSLinkGetPostResp
                                                   AtLib_GSLinkPostDoneAck
                                                   AtLib_GSLinkSend3Value
                                                   AtLib_GSLinkSendTempValue
                                                   AtLib_GSLinkSendValue
           ENTRY                   ADDRESS         REF BY
           =====                   =======         ======
           AtLibGs_DataSend        00006074 
               calls direct
               CSTACK = 00000000 ( 00000004 )
    -------------------------------------------------------------------------
CODE
  Relative segment, address: 00006083 - 000060FD (0x7b bytes), align: 0
  Segment part 322.
           ENTRY                   ADDRESS         REF BY
           =====                   =======         ======
           AtLibGs_SendTCPData     00006083        send_packet (mqtt)
               calls direct
               CSTACK = 00000000 ( 00000020 )
    -------------------------------------------------------------------------
CODE
  Relative segment, address: 000060FE - 00006275 (0x178 bytes), align: 0
  Segment part 326.           Intra module refs:   AtLibGs_ReceiveDataProcess
           ENTRY                   ADDRESS         REF BY
           =====                   =======         ======
           AtLibGs_checkEOFMessage
                                   000060FE 
               calls direct
               CSTACK = 00000000 ( 00000008 )
    -------------------------------------------------------------------------
CODE
  Relative segment, address: 00006276 - 000062EA (0x75 bytes), align: 0
  Segment part 330.
           ENTRY                   ADDRESS         REF BY
           =====                   =======         ======
           AtLibGs_WaitForTCPMessage
                                   00006276        App_WhiskerGW (App_WhiskerGW)
                                                   mqtt_read_packet (mqtt)
               calls direct
               CSTACK = 00000000 ( 0000000E )
    -------------------------------------------------------------------------
CODE
  Relative segment, address: 000062EB - 00006317 (0x2d bytes), align: 0
  Segment part 332.
           ENTRY                   ADDRESS         REF BY
           =====                   =======         ======
           AtLibGs_ParseTCPData    000062EB        App_WhiskerGW (App_WhiskerGW)
                                                   mqtt_read_packet (mqtt)
               CSTACK = 00000000 ( 00000004 )
    -------------------------------------------------------------------------
NEAR_Z
  Relative segment, address: 000FA396 - 000FA397 (0x2 bytes), align: 1
  Segment part 230.           Intra module refs:   AtLibGs_ReceiveDataProcess
           ENTRY                   ADDRESS         REF BY
           =====                   =======         ======
           pDebugMsg               000FA396 
    -------------------------------------------------------------------------
NEAR_Z
  Relative segment, address: 000FA398 - 000FA417 (0x80 bytes), align: 1
  Segment part 231.           Intra module refs:   AtLibGs_ReceiveDataProcess
                                                   AtLib_GSLinkGetPostResp
                                                   AtLib_GSLinkPostDoneAck
                                                   AtLib_GSLinkSend3Value
                                                   AtLib_GSLinkSendTempValue
                                                   AtLib_GSLinkSendValue
           ENTRY                   ADDRESS         REF BY
           =====                   =======         ======
           at_cmd_buf              000FA398 
    -------------------------------------------------------------------------
CODE
  Relative segment, address: 00006318 - 00006369 (0x52 bytes), align: 0
  Segment part 336.           Intra module refs:   itoa
           ENTRY                   ADDRESS         REF BY
           =====                   =======         ======
           strrev                  00006318 
               calls direct
               CSTACK = 00000000 ( 00000008 )
    -------------------------------------------------------------------------
CODE
  Relative segment, address: 0000636A - 00006425 (0xbc bytes), align: 0
  Segment part 337.           Intra module refs:   AtLib_GSLinkSend3Value
                                                   AtLib_GSLinkSendTempValue
                                                   AtLib_GSLinkSendValue
           ENTRY                   ADDRESS         REF BY
           =====                   =======         ======
           AtLib_ConvertNumberTo4DigitASCII
                                   0000636A 
               calls direct
               CSTACK = 00000000 ( 00000012 )
    -------------------------------------------------------------------------
CODE
  Relative segment, address: 00006426 - 00006488 (0x63 bytes), align: 0
  Segment part 338.           Intra module refs:   AtLib_GSLinkGetPostResp
                                                   AtLib_GSLinkSend3Value
                                                   AtLib_GSLinkSendValue
           ENTRY                   ADDRESS         REF BY
           =====                   =======         ======
           itoa                    00006426 
               calls direct
               CSTACK = 00000000 ( 00000008 )
    -------------------------------------------------------------------------
NEAR_I
  Relative segment, address: 000F9F48 - 000F9F6D (0x26 bytes), align: 1
  Segment part 232.           Intra module refs:   itoa
           LOCAL                   ADDRESS         
           =====                   =======         
           itoa::digits            000F9F48 
    -------------------------------------------------------------------------
CODE
  Relative segment, address: 00006489 - 00006532 (0xaa bytes), align: 0
  Segment part 339.           Intra module refs:   AtLib_GSLinkGetPostResp
           ENTRY                   ADDRESS         REF BY
           =====                   =======         ======
           AtLib_GSLinkSendValue   00006489 
               calls direct
               CSTACK = 00000004 ( 00000036 )
    -------------------------------------------------------------------------
CODE
  Relative segment, address: 00006533 - 000065BE (0x8c bytes), align: 0
  Segment part 340.           Intra module refs:   AtLib_GSLinkGetPostResp
           ENTRY                   ADDRESS         REF BY
           =====                   =======         ======
           AtLib_GSLinkSendTempValue
                                   00006533 
               calls direct
               CSTACK = 00000000 ( 00000036 )
    -------------------------------------------------------------------------
CODE
  Relative segment, address: 000065BF - 000066AC (0xee bytes), align: 0
  Segment part 341.           Intra module refs:   AtLib_GSLinkGetPostResp
           ENTRY                   ADDRESS         REF BY
           =====                   =======         ======
           AtLib_GSLinkSend3Value
                                   000065BF 
               calls direct
               CSTACK = 0000000C ( 00000042 )
    -------------------------------------------------------------------------
CODE
  Relative segment, address: 000066AD - 000066F5 (0x49 bytes), align: 0
  Segment part 342.           Intra module refs:   AtLib_GSLinkGetPostResp
           ENTRY                   ADDRESS         REF BY
           =====                   =======         ======
           AtLib_GSLinkPostDoneAck
                                   000066AD 
               calls direct
               CSTACK = 00000000 ( 00000012 )
    -------------------------------------------------------------------------
CODE
  Relative segment, address: 000066F6 - 000067E1 (0xec bytes), align: 0
  Segment part 343.           Intra module refs:   AtLibGs_ReceiveDataProcess
           ENTRY                   ADDRESS         REF BY
           =====                   =======         ======
           AtLib_GSLinkGetPostResp
                                   000066F6 
               calls direct
               CSTACK = 00000006 ( 00000020 )
    -------------------------------------------------------------------------
NEAR_CONST
  Relative segment, address: 000F3460 - 000F3465 (0x6 bytes), align: 1
  Segment part 234.           Intra module refs:   AtLibGs_ReceiveDataProcess
           ENTRY                   ADDRESS         REF BY
           =====                   =======         ======
           ledTag                  000F3460 
    -------------------------------------------------------------------------
NEAR_CONST
  Relative segment, address: 000F3466 - 000F346B (0x6 bytes), align: 1
  Segment part 235.           Intra module refs:   AtLibGs_ReceiveDataProcess
           ENTRY                   ADDRESS         REF BY
           =====                   =======         ======
           ssidTag                 000F3466 
    -------------------------------------------------------------------------
NEAR_CONST
  Relative segment, address: 000F346C - 000F3471 (0x6 bytes), align: 1
  Segment part 236.           Intra module refs:   AtLibGs_ReceiveDataProcess
           ENTRY                   ADDRESS         REF BY
           =====                   =======         ======
           channelTag              000F346C 
    -------------------------------------------------------------------------
NEAR_Z
  Relative segment, address: 000FA418 - 000FA419 (0x2 bytes), align: 1
  Segment part 237.           Intra module refs:   AtLibGs_ReceiveDataProcess
           ENTRY                   ADDRESS         REF BY
           =====                   =======         ======
           valueLen                000FA418 
    -------------------------------------------------------------------------
CODE
  Relative segment, address: 000067E2 - 00006CAD (0x4cc bytes), align: 0
  Segment part 344.           Intra module refs:   AtLibGs_ResponseHandle
                                                   AtLibGs_WaitForTCPMessage
           ENTRY                   ADDRESS         REF BY
           =====                   =======         ======
           AtLibGs_ReceiveDataProcess
                                   000067E2 
               calls direct
               CSTACK = 00000000 ( 00000010 )
    -------------------------------------------------------------------------
NEAR_Z
  Relative segment, address: 000FAFD2 - 000FAFD2 (0x1 bytes), align: 0
  Segment part 238.           Intra module refs:   AtLibGs_ReceiveDataProcess
           LOCAL                   ADDRESS         
           =====                   =======         
           AtLibGs_ReceiveDataProcess::receive_state
                                   000FAFD2 
    -------------------------------------------------------------------------
NEAR_Z
  Relative segment, address: 000FA41A - 000FA41B (0x2 bytes), align: 1
  Segment part 239.           Intra module refs:   AtLibGs_ReceiveDataProcess
           LOCAL                   ADDRESS         
           =====                   =======         
           AtLibGs_ReceiveDataProcess::specialDataLen
                                   000FA41A 
    -------------------------------------------------------------------------
NEAR_Z
  Relative segment, address: 000FAFD3 - 000FAFD3 (0x1 bytes), align: 0
  Segment part 240.           Intra module refs:   AtLibGs_ReceiveDataProcess
           LOCAL                   ADDRESS         
           =====                   =======         
           AtLibGs_ReceiveDataProcess::rxCurrentCid
                                   000FAFD3 
    -------------------------------------------------------------------------
NEAR_Z
  Relative segment, address: 000FAFD4 - 000FAFD4 (0x1 bytes), align: 0
  Segment part 241.           Intra module refs:   AtLibGs_ReceiveDataProcess
           LOCAL                   ADDRESS         
           =====                   =======         
           AtLibGs_ReceiveDataProcess::rxPOSTCid
                                   000FAFD4 
    -------------------------------------------------------------------------
NEAR_Z
  Relative segment, address: 000FAFD5 - 000FAFD5 (0x1 bytes), align: 0
  Segment part 242.           Intra module refs:   AtLibGs_ReceiveDataProcess
           LOCAL                   ADDRESS         
           =====                   =======         
           AtLibGs_ReceiveDataProcess::escStatus
                                   000FAFD5 
    -------------------------------------------------------------------------
NEAR_Z
  Relative segment, address: 000FAFD6 - 000FAFD6 (0x1 bytes), align: 0
  Segment part 243.           Intra module refs:   AtLibGs_ReceiveDataProcess
           LOCAL                   ADDRESS         
           =====                   =======         
           AtLibGs_ReceiveDataProcess::GetValue
                                   000FAFD6 
    -------------------------------------------------------------------------
NEAR_Z
  Relative segment, address: 000FAFD7 - 000FAFD7 (0x1 bytes), align: 0
  Segment part 244.           Intra module refs:   AtLibGs_ReceiveDataProcess
           LOCAL                   ADDRESS         
           =====                   =======         
           AtLibGs_ReceiveDataProcess::specialDataLenCharCount
                                   000FAFD7 
    -------------------------------------------------------------------------
NEAR_Z
  Relative segment, address: 000FAFD8 - 000FAFD8 (0x1 bytes), align: 0
  Segment part 245.           Intra module refs:   AtLibGs_ReceiveDataProcess
           LOCAL                   ADDRESS         
           =====                   =======         
           AtLibGs_ReceiveDataProcess::GSLinkType
                                   000FAFD8 
    -------------------------------------------------------------------------
NEAR_Z
  Relative segment, address: 000FA41C - 000FA41D (0x2 bytes), align: 1
  Segment part 246.           Intra module refs:   AtLibGs_ReceiveDataProcess
           LOCAL                   ADDRESS         
           =====                   =======         
           AtLibGs_ReceiveDataProcess::pPostTag
                                   000FA41C 
    -------------------------------------------------------------------------
NEAR_Z
  Relative segment, address: 000FA41E - 000FA425 (0x8 bytes), align: 1
  Segment part 247.           Intra module refs:   AtLibGs_ReceiveDataProcess
           LOCAL                   ADDRESS         
           =====                   =======         
           AtLibGs_ReceiveDataProcess::PostTag
                                   000FA41E 
    -------------------------------------------------------------------------
NEAR_Z
  Relative segment, address: 000FA426 - 000FA427 (0x2 bytes), align: 1
  Segment part 248.           Intra module refs:   AtLibGs_ReceiveDataProcess
           LOCAL                   ADDRESS         
           =====                   =======         
           AtLibGs_ReceiveDataProcess::pPostValue
                                   000FA426 
    -------------------------------------------------------------------------
NEAR_Z
  Relative segment, address: 000FA428 - 000FA43B (0x14 bytes), align: 1
  Segment part 249.           Intra module refs:   AtLibGs_ReceiveDataProcess
           LOCAL                   ADDRESS         
           =====                   =======         
           AtLibGs_ReceiveDataProcess::PostValue
                                   000FA428 
    -------------------------------------------------------------------------
NEAR_I
  Relative segment, address: 000FA03F - 000FA03F (0x1 bytes), align: 0
  Segment part 250.           Intra module refs:   AtLibGs_ReceiveDataProcess
           LOCAL                   ADDRESS         
           =====                   =======         
           AtLibGs_ReceiveDataProcess{1}{5}::esc2
                                   000FA03F 
    -------------------------------------------------------------------------
CODE
  Relative segment, address: 00006CAE - 00006D18 (0x6b bytes), align: 0
  Segment part 345.           Intra module refs:   AtLibGs_CommandSendString
                                                   AtLibGs_SendTCPData
           ENTRY                   ADDRESS         REF BY
           =====                   =======         ======
           AtLibGs_ResponseHandle
                                   00006CAE 
               calls direct
               CSTACK = 00000000 ( 0000000A )
    -------------------------------------------------------------------------
CODE
  Relative segment, address: 00006D19 - 00006D56 (0x3e bytes), align: 0
  Segment part 347.
           ENTRY                   ADDRESS         REF BY
           =====                   =======         ======
           AtLibGs_FlushIncomingMessage
                                   00006D19        App_ConnectMqtt (App_WhiskerGW)
                                                   App_InitModule (App_Startup)
                                                   WIFI_init (App_WhiskerGW)
                                                   mqtt_connect (mqtt)
               calls direct
               CSTACK = 00000000 ( 0000000A )
    -------------------------------------------------------------------------
CODE
  Relative segment, address: 00006D57 - 00006D5B (0x5 bytes), align: 0
  Segment part 348.           Intra module refs:   AtLibGs_checkEOFMessage
           ENTRY                   ADDRESS         REF BY
           =====                   =======         ======
           AtLibGs_SetNodeResetFlag
                                   00006D57 
    -------------------------------------------------------------------------
CODE
  Relative segment, address: 00006D5C - 00006D5F (0x4 bytes), align: 0
  Segment part 351.
           ENTRY                   ADDRESS         REF BY
           =====                   =======         ======
           AtLibGs_IsNodeAssociated
                                   00006D5C        App_WhiskerGW (App_WhiskerGW)
                                                   RSSIReading (App_WhiskerGW)
    -------------------------------------------------------------------------
CODE
  Relative segment, address: 00006D60 - 00006D64 (0x5 bytes), align: 0
  Segment part 352.
           ENTRY                   ADDRESS         REF BY
           =====                   =======         ======
           AtLibGs_SetNodeAssociationFlag
                                   00006D60        WIFI_Associate (App_WhiskerGW)
    -------------------------------------------------------------------------
CODE
  Relative segment, address: 00006D65 - 00006D69 (0x5 bytes), align: 0
  Segment part 353.           Intra module refs:   AtLibGs_checkEOFMessage
           ENTRY                   ADDRESS         REF BY
           =====                   =======         ======
           AtLibGs_ClearNodeAssociationFlag
                                   00006D65 
    -------------------------------------------------------------------------
CODE
  Relative segment, address: 00006D6A - 00006D80 (0x17 bytes), align: 0
  Segment part 355.           Intra module refs:   AtLibGs_Init
           ENTRY                   ADDRESS         REF BY
           =====                   =======         ======
           AtLibGs_FlushRxBuffer   00006D6A        App_InitModule (App_Startup)
                                                   init_socket (mqtt)
               calls direct
               CSTACK = 00000000 ( 00000004 )
    -------------------------------------------------------------------------
CODE
  Relative segment, address: 00006D81 - 00006D8C (0xc bytes), align: 0
  Segment part 356.
           ENTRY                   ADDRESS         REF BY
           =====                   =======         ======
           AtLibGs_Init            00006D81        WIFI_init (App_WhiskerGW)
               calls direct
    -------------------------------------------------------------------------
CODE
  Relative segment, address: 00006D8D - 00006DAE (0x22 bytes), align: 0
  Segment part 368.
           ENTRY                   ADDRESS         REF BY
           =====                   =======         ======
           AtLibGs_SetAuthentictionMode
                                   00006D8D        WIFI_Associate (App_WhiskerGW)
                                                   WIFI_init (App_WhiskerGW)
               calls direct
               CSTACK = 00000000 ( 0000001A )
    -------------------------------------------------------------------------
CODE
  Relative segment, address: 00006DAF - 00006DB5 (0x7 bytes), align: 0
  Segment part 373.
           ENTRY                   ADDRESS         REF BY
           =====                   =======         ======
           AtLibGs_EnableDHCPServer
                                   00006DAF        App_StartupLimitedAP (App_Startup)
               calls direct
    -------------------------------------------------------------------------
CODE
  Relative segment, address: 00006DB6 - 00006DBC (0x7 bytes), align: 0
  Segment part 374.
           ENTRY                   ADDRESS         REF BY
           =====                   =======         ======
           AtLibGs_DisableDHCPServer
                                   00006DB6        App_StartupLimitedAP (App_Startup)
               calls direct
    -------------------------------------------------------------------------
CODE
  Relative segment, address: 00006DBD - 00006DDE (0x22 bytes), align: 0
  Segment part 380.
           ENTRY                   ADDRESS         REF BY
           =====                   =======         ======
           AtLibGs_SetSecurity     00006DBD        WIFI_init (App_WhiskerGW)
               calls direct
               CSTACK = 00000000 ( 0000001A )
    -------------------------------------------------------------------------
CODE
  Relative segment, address: 00006DDF - 00006DFF (0x21 bytes), align: 0
  Segment part 397.
           ENTRY                   ADDRESS         REF BY
           =====                   =======         ======
           AtLibGs_WebProv         00006DDF        App_WebProvisioning_OverAirPush (App_Startup)
               calls direct
               CSTACK = 00000000 ( 00000058 )
    -------------------------------------------------------------------------
CODE
  Relative segment, address: 00006E00 - 000070ED (0x2ee bytes), align: 0
  Segment part 426.
           ENTRY                   ADDRESS         REF BY
           =====                   =======         ======
           AtLibGs_GetWebProvSettings
                                   00006E00        App_WebProvisioning_OverAirPush (App_Startup)
               calls direct
               CSTACK = 00000004 ( 00000066 )
    -------------------------------------------------------------------------
CODE
  Relative segment, address: 000070EE - 000070F4 (0x7 bytes), align: 0
  Segment part 430.
           ENTRY                   ADDRESS         REF BY
           =====                   =======         ======
           AtLibGs_StartMDNS       000070EE        App_WebProvisioning_OverAirPush (App_Startup)
               calls direct
    -------------------------------------------------------------------------
CODE
  Relative segment, address: 000070F5 - 000070FB (0x7 bytes), align: 0
  Segment part 431.
           ENTRY                   ADDRESS         REF BY
           =====                   =======         ======
           AtLibGs_AnnounceMDNS    000070F5        App_WebProvisioning_OverAirPush (App_Startup)
               calls direct
    -------------------------------------------------------------------------
CODE
  Relative segment, address: 000070FC - 0000711C (0x21 bytes), align: 0
  Segment part 432.
           ENTRY                   ADDRESS         REF BY
           =====                   =======         ======
           AtLibGs_RegisterMDNSHost
                                   000070FC        App_WebProvisioning_OverAirPush (App_Startup)
               calls direct
               CSTACK = 00000000 ( 00000058 )
    -------------------------------------------------------------------------
CODE
  Relative segment, address: 0000711D - 00007153 (0x37 bytes), align: 0
  Segment part 433.
           ENTRY                   ADDRESS         REF BY
           =====                   =======         ======
           AtLibGs_RegisterMDNSService
                                   0000711D        App_WebProvisioning_OverAirPush (App_Startup)
               calls direct
               CSTACK = 0000000A ( 00000096 )
    -------------------------------------------------------------------------
NEAR_ID
  Relative segment, address: 0000B63E - 0000B663 (0x26 bytes), align: 1
  Segment part 233.           Intra module refs:   itoa::digits
    -------------------------------------------------------------------------
NEAR_ID
  Relative segment, address: 0000B735 - 0000B735 (0x1 bytes), align: 0
  Segment part 251.           Intra module refs:   AtLibGs_ReceiveDataProcess{1}{5}::esc2
    -------------------------------------------------------------------------
NEAR_CONST
  Relative segment, address: 000F3472 - 000F3479 (0x8 bytes), align: 1
  Segment part 2.             Intra module refs:   AtLibGs_Check
    -------------------------------------------------------------------------
NEAR_CONST
  Relative segment, address: 000F347A - 000F3481 (0x8 bytes), align: 1
  Segment part 3.             Intra module refs:   AtLibGs_SetEcho
    -------------------------------------------------------------------------
NEAR_CONST
  Relative segment, address: 000F3482 - 000F348D (0xc bytes), align: 1
  Segment part 6.             Intra module refs:   AtLibGs_GetMAC
    -------------------------------------------------------------------------
NEAR_CONST
  Relative segment, address: 000F348E - 000F349B (0xe bytes), align: 1
  Segment part 8.             Intra module refs:   AtLibGs_SetWEP1
    -------------------------------------------------------------------------
NEAR_CONST
  Relative segment, address: 000F349C - 000F34AD (0x12 bytes), align: 1
  Segment part 9.             Intra module refs:   AtLibGs_CalcNStorePSK
    -------------------------------------------------------------------------
NEAR_CONST
  Relative segment, address: 000F34AE - 000F34BB (0xe bytes), align: 1
  Segment part 11.            Intra module refs:   AtLibGs_DHCPSet
    -------------------------------------------------------------------------
NEAR_CONST
  Relative segment, address: 000F34BC - 000F34CD (0x12 bytes), align: 1
  Segment part 12.            Intra module refs:   AtLibGs_Assoc
    -------------------------------------------------------------------------
NEAR_CONST
  Relative segment, address: 000F34CE - 000F34CF (0x2 bytes), align: 1
  Segment part 13.            Intra module refs:   AtLibGs_Assoc
    -------------------------------------------------------------------------
NEAR_CONST
  Relative segment, address: 000F34D0 - 000F34DB (0xc bytes), align: 1
  Segment part 14.            Intra module refs:   AtLibGs_Assoc
    -------------------------------------------------------------------------
NEAR_CONST
  Relative segment, address: 000F34DC - 000F34ED (0x12 bytes), align: 1
  Segment part 15.            Intra module refs:   AtLibGs_TCPClientStart
    -------------------------------------------------------------------------
NEAR_CONST
  Relative segment, address: 000F34EE - 000F34F5 (0x8 bytes), align: 1
  Segment part 16.            Intra module refs:   AtLibGs_TCPClientStart
    -------------------------------------------------------------------------
NEAR_CONST
  Relative segment, address: 000F34F6 - 000F3509 (0x14 bytes), align: 1
  Segment part 25.            Intra module refs:   AtLibGs_IPSet
    -------------------------------------------------------------------------
NEAR_CONST
  Relative segment, address: 000F350A - 000F3517 (0xe bytes), align: 1
  Segment part 29.            Intra module refs:   AtLibGs_GetRssi
    -------------------------------------------------------------------------
NEAR_CONST
  Relative segment, address: 000F3518 - 000F351F (0x8 bytes), align: 1
  Segment part 30.            Intra module refs:   AtLibGs_DisAssoc
    -------------------------------------------------------------------------
NEAR_CONST
  Relative segment, address: 000F3520 - 000F352B (0xc bytes), align: 1
  Segment part 34.            Intra module refs:   AtLibGs_Version
    -------------------------------------------------------------------------
NEAR_CONST
  Relative segment, address: 000F352C - 000F3537 (0xc bytes), align: 1
  Segment part 35.            Intra module refs:   AtLibGs_Mode
    -------------------------------------------------------------------------
NEAR_CONST
  Relative segment, address: 000F3538 - 000F3545 (0xe bytes), align: 1
  Segment part 37.            Intra module refs:   AtLibGs_checkEOFMessage
    -------------------------------------------------------------------------
NEAR_CONST
  Relative segment, address: 000F3546 - 000F3557 (0x12 bytes), align: 1
  Segment part 40.            Intra module refs:   AtLibGs_DNSLookup
    -------------------------------------------------------------------------
NEAR_CONST
  Relative segment, address: 000F3558 - 000F3569 (0x12 bytes), align: 1
  Segment part 45.            Intra module refs:   AtLibGs_EnableRadio
    -------------------------------------------------------------------------
NEAR_CONST
  Relative segment, address: 000F356A - 000F3579 (0x10 bytes), align: 1
  Segment part 49.            Intra module refs:   AtLibGs_ConfigAntenna
    -------------------------------------------------------------------------
NEAR_CONST
  Relative segment, address: 000F357A - 000F357F (0x6 bytes), align: 1
  Segment part 62.            Intra module refs:   AtLibGs_GetWebProvSettings
    -------------------------------------------------------------------------
NEAR_CONST
  Relative segment, address: 000F3580 - 000F3593 (0x14 bytes), align: 1
  Segment part 68.            Intra module refs:   AtLibGs_ParseGetMacResponse
    -------------------------------------------------------------------------
NEAR_CONST
  Relative segment, address: 000F3594 - 000F3595 (0x2 bytes), align: 1
  Segment part 69.            Intra module refs:   AtLibGs_ParseGetMacResponse
    -------------------------------------------------------------------------
NEAR_CONST
  Relative segment, address: 000F3596 - 000F3597 (0x2 bytes), align: 1
  Segment part 72.            Intra module refs:   AtLibGs_ParseRssiResponse
    -------------------------------------------------------------------------
NEAR_CONST
  Relative segment, address: 000F3598 - 000F359B (0x4 bytes), align: 1
  Segment part 73.            Intra module refs:   AtLibGs_ParseDNSLookupResponse
    -------------------------------------------------------------------------
NEAR_CONST
  Relative segment, address: 000F359C - 000F35A3 (0x8 bytes), align: 1
  Segment part 74.            Intra module refs:   AtLibGs_SendTCPData
    -------------------------------------------------------------------------
NEAR_CONST
  Relative segment, address: 000F35A4 - 000F35A9 (0x6 bytes), align: 1
  Segment part 75.            Intra module refs:   AtLibGs_SendTCPData
    -------------------------------------------------------------------------
NEAR_CONST
  Relative segment, address: 000F35AA - 000F35AD (0x4 bytes), align: 1
  Segment part 78.            Intra module refs:   AtLibGs_checkEOFMessage
    -------------------------------------------------------------------------
NEAR_CONST
  Relative segment, address: 000F35AE - 000F35B3 (0x6 bytes), align: 1
  Segment part 79.            Intra module refs:   AtLibGs_checkEOFMessage
    -------------------------------------------------------------------------
NEAR_CONST
  Relative segment, address: 000F35B4 - 000F35C1 (0xe bytes), align: 1
  Segment part 80.            Intra module refs:   AtLibGs_checkEOFMessage
    -------------------------------------------------------------------------
NEAR_CONST
  Relative segment, address: 000F35C2 - 000F35D7 (0x16 bytes), align: 1
  Segment part 81.            Intra module refs:   AtLibGs_checkEOFMessage
    -------------------------------------------------------------------------
NEAR_CONST
  Relative segment, address: 000F35D8 - 000F35ED (0x16 bytes), align: 1
  Segment part 82.            Intra module refs:   AtLibGs_checkEOFMessage
    -------------------------------------------------------------------------
NEAR_CONST
  Relative segment, address: 000F35EE - 000F3605 (0x18 bytes), align: 1
  Segment part 83.            Intra module refs:   AtLibGs_checkEOFMessage
    -------------------------------------------------------------------------
NEAR_CONST
  Relative segment, address: 000F3606 - 000F3611 (0xc bytes), align: 1
  Segment part 84.            Intra module refs:   AtLibGs_checkEOFMessage
    -------------------------------------------------------------------------
NEAR_CONST
  Relative segment, address: 000F3612 - 000F3627 (0x16 bytes), align: 1
  Segment part 85.            Intra module refs:   AtLibGs_checkEOFMessage
    -------------------------------------------------------------------------
NEAR_CONST
  Relative segment, address: 000F3628 - 000F363D (0x16 bytes), align: 1
  Segment part 86.            Intra module refs:   AtLibGs_checkEOFMessage
    -------------------------------------------------------------------------
NEAR_CONST
  Relative segment, address: 000F363E - 000F3653 (0x16 bytes), align: 1
  Segment part 87.            Intra module refs:   AtLibGs_checkEOFMessage
    -------------------------------------------------------------------------
NEAR_CONST
  Relative segment, address: 000F3654 - 000F3669 (0x16 bytes), align: 1
  Segment part 88.            Intra module refs:   AtLibGs_checkEOFMessage
    -------------------------------------------------------------------------
NEAR_CONST
  Relative segment, address: 000F366A - 000F367B (0x12 bytes), align: 1
  Segment part 89.            Intra module refs:   AtLibGs_checkEOFMessage
    -------------------------------------------------------------------------
NEAR_CONST
  Relative segment, address: 000F367C - 000F368B (0x10 bytes), align: 1
  Segment part 90.            Intra module refs:   AtLibGs_checkEOFMessage
    -------------------------------------------------------------------------
NEAR_CONST
  Relative segment, address: 000F368C - 000F3695 (0xa bytes), align: 1
  Segment part 91.            Intra module refs:   AtLibGs_checkEOFMessage
    -------------------------------------------------------------------------
NEAR_CONST
  Relative segment, address: 000F3696 - 000F369F (0xa bytes), align: 1
  Segment part 92.            Intra module refs:   AtLib_ConvertNumberTo4DigitASCII
    -------------------------------------------------------------------------
NEAR_CONST
  Relative segment, address: 000F36A0 - 000F36A7 (0x8 bytes), align: 1
  Segment part 93.            Intra module refs:   AtLib_GSLinkSendValue
    -------------------------------------------------------------------------
NEAR_CONST
  Relative segment, address: 000F36A8 - 000F36B3 (0xc bytes), align: 1
  Segment part 94.            Intra module refs:   AtLib_GSLinkPostDoneAck
                                                   AtLib_GSLinkSend3Value
                                                   AtLib_GSLinkSendTempValue
                                                   AtLib_GSLinkSendValue
    -------------------------------------------------------------------------
NEAR_CONST
  Relative segment, address: 000F36B4 - 000F36BD (0xa bytes), align: 1
  Segment part 95.            Intra module refs:   AtLib_GSLinkSendTempValue
    -------------------------------------------------------------------------
NEAR_CONST
  Relative segment, address: 000F36BE - 000F36CB (0xe bytes), align: 1
  Segment part 96.            Intra module refs:   AtLib_GSLinkSend3Value
    -------------------------------------------------------------------------
NEAR_CONST
  Relative segment, address: 000F36CC - 000F36D1 (0x6 bytes), align: 1
  Segment part 97.            Intra module refs:   AtLib_GSLinkPostDoneAck
    -------------------------------------------------------------------------
NEAR_CONST
  Relative segment, address: 000F36D2 - 000F36DB (0xa bytes), align: 1
  Segment part 98.            Intra module refs:   AtLib_GSLinkPostDoneAck
    -------------------------------------------------------------------------
NEAR_CONST
  Relative segment, address: 000F36DC - 000F36EF (0x14 bytes), align: 1
  Segment part 99.            Intra module refs:   AtLib_GSLinkGetPostResp
    -------------------------------------------------------------------------
NEAR_CONST
  Relative segment, address: 000F36F0 - 000F36FB (0xc bytes), align: 1
  Segment part 100.           Intra module refs:   AtLib_GSLinkGetPostResp
    -------------------------------------------------------------------------
NEAR_CONST
  Relative segment, address: 000F36FC - 000F3701 (0x6 bytes), align: 1
  Segment part 101.           Intra module refs:   AtLib_GSLinkGetPostResp
    -------------------------------------------------------------------------
NEAR_CONST
  Relative segment, address: 000F3702 - 000F3707 (0x6 bytes), align: 1
  Segment part 102.           Intra module refs:   AtLib_GSLinkGetPostResp
    -------------------------------------------------------------------------
NEAR_CONST
  Relative segment, address: 000F3708 - 000F370B (0x4 bytes), align: 1
  Segment part 103.           Intra module refs:   AtLib_GSLinkGetPostResp
    -------------------------------------------------------------------------
NEAR_CONST
  Relative segment, address: 000F370C - 000F3711 (0x6 bytes), align: 1
  Segment part 104.           Intra module refs:   AtLib_GSLinkGetPostResp
    -------------------------------------------------------------------------
NEAR_CONST
  Relative segment, address: 000F3712 - 000F371F (0xe bytes), align: 1
  Segment part 127.           Intra module refs:   AtLibGs_SetAuthentictionMode
    -------------------------------------------------------------------------
NEAR_CONST
  Relative segment, address: 000F3720 - 000F372F (0x10 bytes), align: 1
  Segment part 133.           Intra module refs:   AtLibGs_EnableDHCPServer
    -------------------------------------------------------------------------
NEAR_CONST
  Relative segment, address: 000F3730 - 000F373F (0x10 bytes), align: 1
  Segment part 134.           Intra module refs:   AtLibGs_DisableDHCPServer
    -------------------------------------------------------------------------
NEAR_CONST
  Relative segment, address: 000F3740 - 000F374D (0xe bytes), align: 1
  Segment part 140.           Intra module refs:   AtLibGs_SetSecurity
    -------------------------------------------------------------------------
NEAR_CONST
  Relative segment, address: 000F374E - 000F3761 (0x14 bytes), align: 1
  Segment part 155.           Intra module refs:   AtLibGs_WebProv
    -------------------------------------------------------------------------
NEAR_CONST
  Relative segment, address: 000F3762 - 000F376B (0xa bytes), align: 1
  Segment part 187.           Intra module refs:   AtLibGs_GetWebProvSettings
    -------------------------------------------------------------------------
NEAR_CONST
  Relative segment, address: 000F376C - 000F3775 (0xa bytes), align: 1
  Segment part 203.           Intra module refs:   AtLibGs_GetWebProvSettings
    -------------------------------------------------------------------------
NEAR_CONST
  Relative segment, address: 000F3776 - 000F377B (0x6 bytes), align: 1
  Segment part 204.           Intra module refs:   AtLibGs_GetWebProvSettings
    -------------------------------------------------------------------------
NEAR_CONST
  Relative segment, address: 000F377C - 000F3785 (0xa bytes), align: 1
  Segment part 205.           Intra module refs:   AtLibGs_GetWebProvSettings
    -------------------------------------------------------------------------
NEAR_CONST
  Relative segment, address: 000F3786 - 000F378B (0x6 bytes), align: 1
  Segment part 206.           Intra module refs:   AtLibGs_GetWebProvSettings
    -------------------------------------------------------------------------
NEAR_CONST
  Relative segment, address: 000F378C - 000F379B (0x10 bytes), align: 1
  Segment part 207.           Intra module refs:   AtLibGs_GetWebProvSettings
    -------------------------------------------------------------------------
NEAR_CONST
  Relative segment, address: 000F379C - 000F37A3 (0x8 bytes), align: 1
  Segment part 208.           Intra module refs:   AtLibGs_GetWebProvSettings
    -------------------------------------------------------------------------
NEAR_CONST
  Relative segment, address: 000F37A4 - 000F37AD (0xa bytes), align: 1
  Segment part 209.           Intra module refs:   AtLibGs_GetWebProvSettings
    -------------------------------------------------------------------------
NEAR_CONST
  Relative segment, address: 000F37AE - 000F37B7 (0xa bytes), align: 1
  Segment part 210.           Intra module refs:   AtLibGs_GetWebProvSettings
    -------------------------------------------------------------------------
NEAR_CONST
  Relative segment, address: 000F37B8 - 000F37C3 (0xc bytes), align: 1
  Segment part 211.           Intra module refs:   AtLibGs_GetWebProvSettings
    -------------------------------------------------------------------------
NEAR_CONST
  Relative segment, address: 000F37C4 - 000F37CF (0xc bytes), align: 1
  Segment part 212.           Intra module refs:   AtLibGs_GetWebProvSettings
    -------------------------------------------------------------------------
NEAR_CONST
  Relative segment, address: 000F37D0 - 000F37DD (0xe bytes), align: 1
  Segment part 213.           Intra module refs:   AtLibGs_GetWebProvSettings
    -------------------------------------------------------------------------
NEAR_CONST
  Relative segment, address: 000F37DE - 000F37ED (0x10 bytes), align: 1
  Segment part 214.           Intra module refs:   AtLibGs_GetWebProvSettings
    -------------------------------------------------------------------------
NEAR_CONST
  Relative segment, address: 000F37EE - 000F37FD (0x10 bytes), align: 1
  Segment part 215.           Intra module refs:   AtLibGs_GetWebProvSettings
    -------------------------------------------------------------------------
NEAR_CONST
  Relative segment, address: 000F37FE - 000F380D (0x10 bytes), align: 1
  Segment part 218.           Intra module refs:   AtLibGs_StartMDNS
    -------------------------------------------------------------------------
NEAR_CONST
  Relative segment, address: 000F380E - 000F381F (0x12 bytes), align: 1
  Segment part 219.           Intra module refs:   AtLibGs_AnnounceMDNS
    -------------------------------------------------------------------------
NEAR_CONST
  Relative segment, address: 000F3820 - 000F3835 (0x16 bytes), align: 1
  Segment part 220.           Intra module refs:   AtLibGs_RegisterMDNSHost
    -------------------------------------------------------------------------
NEAR_CONST
  Relative segment, address: 000F3836 - 000F385D (0x28 bytes), align: 1
  Segment part 221.           Intra module refs:   AtLibGs_RegisterMDNSService
    -------------------------------------------------------------------------
NEAR_CONST_ID
  Relative segment, address: 00003430 - 0000344F (0x20 bytes), align: 1
  Segment part 439.           Intra module refs:   str_URL
    -------------------------------------------------------------------------
NEAR_CONST_ID
  Relative segment, address: 00003450 - 0000345F (0x10 bytes), align: 1
  Segment part 440.           Intra module refs:   str_rootTag
    -------------------------------------------------------------------------
NEAR_CONST_ID
  Relative segment, address: 00003460 - 00003465 (0x6 bytes), align: 1
  Segment part 441.           Intra module refs:   ledTag
    -------------------------------------------------------------------------
NEAR_CONST_ID
  Relative segment, address: 00003466 - 0000346B (0x6 bytes), align: 1
  Segment part 442.           Intra module refs:   ssidTag
    -------------------------------------------------------------------------
NEAR_CONST_ID
  Relative segment, address: 0000346C - 00003471 (0x6 bytes), align: 1
  Segment part 443.           Intra module refs:   channelTag
    -------------------------------------------------------------------------
NEAR_CONST_ID
  Relative segment, address: 00003472 - 00003479 (0x8 bytes), align: 1
  Segment part 444.           Intra module refs:   Segment part 2
    -------------------------------------------------------------------------
NEAR_CONST_ID
  Relative segment, address: 0000347A - 00003481 (0x8 bytes), align: 1
  Segment part 445.           Intra module refs:   Segment part 3
    -------------------------------------------------------------------------
NEAR_CONST_ID
  Relative segment, address: 00003482 - 0000348D (0xc bytes), align: 1
  Segment part 448.           Intra module refs:   Segment part 6
    -------------------------------------------------------------------------
NEAR_CONST_ID
  Relative segment, address: 0000348E - 0000349B (0xe bytes), align: 1
  Segment part 450.           Intra module refs:   Segment part 8
    -------------------------------------------------------------------------
NEAR_CONST_ID
  Relative segment, address: 0000349C - 000034AD (0x12 bytes), align: 1
  Segment part 451.           Intra module refs:   Segment part 9
    -------------------------------------------------------------------------
NEAR_CONST_ID
  Relative segment, address: 000034AE - 000034BB (0xe bytes), align: 1
  Segment part 453.           Intra module refs:   Segment part 11
    -------------------------------------------------------------------------
NEAR_CONST_ID
  Relative segment, address: 000034BC - 000034CD (0x12 bytes), align: 1
  Segment part 454.           Intra module refs:   Segment part 12
    -------------------------------------------------------------------------
NEAR_CONST_ID
  Relative segment, address: 000034CE - 000034CF (0x2 bytes), align: 1
  Segment part 455.           Intra module refs:   Segment part 13
    -------------------------------------------------------------------------
NEAR_CONST_ID
  Relative segment, address: 000034D0 - 000034DB (0xc bytes), align: 1
  Segment part 456.           Intra module refs:   Segment part 14
    -------------------------------------------------------------------------
NEAR_CONST_ID
  Relative segment, address: 000034DC - 000034ED (0x12 bytes), align: 1
  Segment part 457.           Intra module refs:   Segment part 15
    -------------------------------------------------------------------------
NEAR_CONST_ID
  Relative segment, address: 000034EE - 000034F5 (0x8 bytes), align: 1
  Segment part 458.           Intra module refs:   Segment part 16
    -------------------------------------------------------------------------
NEAR_CONST_ID
  Relative segment, address: 000034F6 - 00003509 (0x14 bytes), align: 1
  Segment part 467.           Intra module refs:   Segment part 25
    -------------------------------------------------------------------------
NEAR_CONST_ID
  Relative segment, address: 0000350A - 00003517 (0xe bytes), align: 1
  Segment part 471.           Intra module refs:   Segment part 29
    -------------------------------------------------------------------------
NEAR_CONST_ID
  Relative segment, address: 00003518 - 0000351F (0x8 bytes), align: 1
  Segment part 472.           Intra module refs:   Segment part 30
    -------------------------------------------------------------------------
NEAR_CONST_ID
  Relative segment, address: 00003520 - 0000352B (0xc bytes), align: 1
  Segment part 476.           Intra module refs:   Segment part 34
    -------------------------------------------------------------------------
NEAR_CONST_ID
  Relative segment, address: 0000352C - 00003537 (0xc bytes), align: 1
  Segment part 477.           Intra module refs:   Segment part 35
    -------------------------------------------------------------------------
NEAR_CONST_ID
  Relative segment, address: 00003538 - 00003545 (0xe bytes), align: 1
  Segment part 479.           Intra module refs:   Segment part 37
    -------------------------------------------------------------------------
NEAR_CONST_ID
  Relative segment, address: 00003546 - 00003557 (0x12 bytes), align: 1
  Segment part 482.           Intra module refs:   Segment part 40
    -------------------------------------------------------------------------
NEAR_CONST_ID
  Relative segment, address: 00003558 - 00003569 (0x12 bytes), align: 1
  Segment part 487.           Intra module refs:   Segment part 45
    -------------------------------------------------------------------------
NEAR_CONST_ID
  Relative segment, address: 0000356A - 00003579 (0x10 bytes), align: 1
  Segment part 491.           Intra module refs:   Segment part 49
    -------------------------------------------------------------------------
NEAR_CONST_ID
  Relative segment, address: 0000357A - 0000357F (0x6 bytes), align: 1
  Segment part 504.           Intra module refs:   Segment part 62
    -------------------------------------------------------------------------
NEAR_CONST_ID
  Relative segment, address: 00003580 - 00003593 (0x14 bytes), align: 1
  Segment part 510.           Intra module refs:   Segment part 68
    -------------------------------------------------------------------------
NEAR_CONST_ID
  Relative segment, address: 00003594 - 00003595 (0x2 bytes), align: 1
  Segment part 511.           Intra module refs:   Segment part 69
    -------------------------------------------------------------------------
NEAR_CONST_ID
  Relative segment, address: 00003596 - 00003597 (0x2 bytes), align: 1
  Segment part 514.           Intra module refs:   Segment part 72
    -------------------------------------------------------------------------
NEAR_CONST_ID
  Relative segment, address: 00003598 - 0000359B (0x4 bytes), align: 1
  Segment part 515.           Intra module refs:   Segment part 73
    -------------------------------------------------------------------------
NEAR_CONST_ID
  Relative segment, address: 0000359C - 000035A3 (0x8 bytes), align: 1
  Segment part 516.           Intra module refs:   Segment part 74
    -------------------------------------------------------------------------
NEAR_CONST_ID
  Relative segment, address: 000035A4 - 000035A9 (0x6 bytes), align: 1
  Segment part 517.           Intra module refs:   Segment part 75
    -------------------------------------------------------------------------
NEAR_CONST_ID
  Relative segment, address: 000035AA - 000035AD (0x4 bytes), align: 1
  Segment part 520.           Intra module refs:   Segment part 78
    -------------------------------------------------------------------------
NEAR_CONST_ID
  Relative segment, address: 000035AE - 000035B3 (0x6 bytes), align: 1
  Segment part 521.           Intra module refs:   Segment part 79
    -------------------------------------------------------------------------
NEAR_CONST_ID
  Relative segment, address: 000035B4 - 000035C1 (0xe bytes), align: 1
  Segment part 522.           Intra module refs:   Segment part 80
    -------------------------------------------------------------------------
NEAR_CONST_ID
  Relative segment, address: 000035C2 - 000035D7 (0x16 bytes), align: 1
  Segment part 523.           Intra module refs:   Segment part 81
    -------------------------------------------------------------------------
NEAR_CONST_ID
  Relative segment, address: 000035D8 - 000035ED (0x16 bytes), align: 1
  Segment part 524.           Intra module refs:   Segment part 82
    -------------------------------------------------------------------------
NEAR_CONST_ID
  Relative segment, address: 000035EE - 00003605 (0x18 bytes), align: 1
  Segment part 525.           Intra module refs:   Segment part 83
    -------------------------------------------------------------------------
NEAR_CONST_ID
  Relative segment, address: 00003606 - 00003611 (0xc bytes), align: 1
  Segment part 526.           Intra module refs:   Segment part 84
    -------------------------------------------------------------------------
NEAR_CONST_ID
  Relative segment, address: 00003612 - 00003627 (0x16 bytes), align: 1
  Segment part 527.           Intra module refs:   Segment part 85
    -------------------------------------------------------------------------
NEAR_CONST_ID
  Relative segment, address: 00003628 - 0000363D (0x16 bytes), align: 1
  Segment part 528.           Intra module refs:   Segment part 86
    -------------------------------------------------------------------------
NEAR_CONST_ID
  Relative segment, address: 0000363E - 00003653 (0x16 bytes), align: 1
  Segment part 529.           Intra module refs:   Segment part 87
    -------------------------------------------------------------------------
NEAR_CONST_ID
  Relative segment, address: 00003654 - 00003669 (0x16 bytes), align: 1
  Segment part 530.           Intra module refs:   Segment part 88
    -------------------------------------------------------------------------
NEAR_CONST_ID
  Relative segment, address: 0000366A - 0000367B (0x12 bytes), align: 1
  Segment part 531.           Intra module refs:   Segment part 89
    -------------------------------------------------------------------------
NEAR_CONST_ID
  Relative segment, address: 0000367C - 0000368B (0x10 bytes), align: 1
  Segment part 532.           Intra module refs:   Segment part 90
    -------------------------------------------------------------------------
NEAR_CONST_ID
  Relative segment, address: 0000368C - 00003695 (0xa bytes), align: 1
  Segment part 533.           Intra module refs:   Segment part 91
    -------------------------------------------------------------------------
NEAR_CONST_ID
  Relative segment, address: 00003696 - 0000369F (0xa bytes), align: 1
  Segment part 534.           Intra module refs:   Segment part 92
    -------------------------------------------------------------------------
NEAR_CONST_ID
  Relative segment, address: 000036A0 - 000036A7 (0x8 bytes), align: 1
  Segment part 535.           Intra module refs:   Segment part 93
    -------------------------------------------------------------------------
NEAR_CONST_ID
  Relative segment, address: 000036A8 - 000036B3 (0xc bytes), align: 1
  Segment part 536.           Intra module refs:   Segment part 94
    -------------------------------------------------------------------------
NEAR_CONST_ID
  Relative segment, address: 000036B4 - 000036BD (0xa bytes), align: 1
  Segment part 537.           Intra module refs:   Segment part 95
    -------------------------------------------------------------------------
NEAR_CONST_ID
  Relative segment, address: 000036BE - 000036CB (0xe bytes), align: 1
  Segment part 538.           Intra module refs:   Segment part 96
    -------------------------------------------------------------------------
NEAR_CONST_ID
  Relative segment, address: 000036CC - 000036D1 (0x6 bytes), align: 1
  Segment part 539.           Intra module refs:   Segment part 97
    -------------------------------------------------------------------------
NEAR_CONST_ID
  Relative segment, address: 000036D2 - 000036DB (0xa bytes), align: 1
  Segment part 540.           Intra module refs:   Segment part 98
    -------------------------------------------------------------------------
NEAR_CONST_ID
  Relative segment, address: 000036DC - 000036EF (0x14 bytes), align: 1
  Segment part 541.           Intra module refs:   Segment part 99
    -------------------------------------------------------------------------
NEAR_CONST_ID
  Relative segment, address: 000036F0 - 000036FB (0xc bytes), align: 1
  Segment part 542.           Intra module refs:   Segment part 100
    -------------------------------------------------------------------------
NEAR_CONST_ID
  Relative segment, address: 000036FC - 00003701 (0x6 bytes), align: 1
  Segment part 543.           Intra module refs:   Segment part 101
    -------------------------------------------------------------------------
NEAR_CONST_ID
  Relative segment, address: 00003702 - 00003707 (0x6 bytes), align: 1
  Segment part 544.           Intra module refs:   Segment part 102
    -------------------------------------------------------------------------
NEAR_CONST_ID
  Relative segment, address: 00003708 - 0000370B (0x4 bytes), align: 1
  Segment part 545.           Intra module refs:   Segment part 103
    -------------------------------------------------------------------------
NEAR_CONST_ID
  Relative segment, address: 0000370C - 00003711 (0x6 bytes), align: 1
  Segment part 546.           Intra module refs:   Segment part 104
    -------------------------------------------------------------------------
NEAR_CONST_ID
  Relative segment, address: 00003712 - 0000371F (0xe bytes), align: 1
  Segment part 569.           Intra module refs:   Segment part 127
    -------------------------------------------------------------------------
NEAR_CONST_ID
  Relative segment, address: 00003720 - 0000372F (0x10 bytes), align: 1
  Segment part 575.           Intra module refs:   Segment part 133
    -------------------------------------------------------------------------
NEAR_CONST_ID
  Relative segment, address: 00003730 - 0000373F (0x10 bytes), align: 1
  Segment part 576.           Intra module refs:   Segment part 134
    -------------------------------------------------------------------------
NEAR_CONST_ID
  Relative segment, address: 00003740 - 0000374D (0xe bytes), align: 1
  Segment part 582.           Intra module refs:   Segment part 140
    -------------------------------------------------------------------------
NEAR_CONST_ID
  Relative segment, address: 0000374E - 00003761 (0x14 bytes), align: 1
  Segment part 597.           Intra module refs:   Segment part 155
    -------------------------------------------------------------------------
NEAR_CONST_ID
  Relative segment, address: 00003762 - 0000376B (0xa bytes), align: 1
  Segment part 629.           Intra module refs:   Segment part 187
    -------------------------------------------------------------------------
NEAR_CONST_ID
  Relative segment, address: 0000376C - 00003775 (0xa bytes), align: 1
  Segment part 645.           Intra module refs:   Segment part 203
    -------------------------------------------------------------------------
NEAR_CONST_ID
  Relative segment, address: 00003776 - 0000377B (0x6 bytes), align: 1
  Segment part 646.           Intra module refs:   Segment part 204
    -------------------------------------------------------------------------
NEAR_CONST_ID
  Relative segment, address: 0000377C - 00003785 (0xa bytes), align: 1
  Segment part 647.           Intra module refs:   Segment part 205
    -------------------------------------------------------------------------
NEAR_CONST_ID
  Relative segment, address: 00003786 - 0000378B (0x6 bytes), align: 1
  Segment part 648.           Intra module refs:   Segment part 206
    -------------------------------------------------------------------------
NEAR_CONST_ID
  Relative segment, address: 0000378C - 0000379B (0x10 bytes), align: 1
  Segment part 649.           Intra module refs:   Segment part 207
    -------------------------------------------------------------------------
NEAR_CONST_ID
  Relative segment, address: 0000379C - 000037A3 (0x8 bytes), align: 1
  Segment part 650.           Intra module refs:   Segment part 208
    -------------------------------------------------------------------------
NEAR_CONST_ID
  Relative segment, address: 000037A4 - 000037AD (0xa bytes), align: 1
  Segment part 651.           Intra module refs:   Segment part 209
    -------------------------------------------------------------------------
NEAR_CONST_ID
  Relative segment, address: 000037AE - 000037B7 (0xa bytes), align: 1
  Segment part 652.           Intra module refs:   Segment part 210
    -------------------------------------------------------------------------
NEAR_CONST_ID
  Relative segment, address: 000037B8 - 000037C3 (0xc bytes), align: 1
  Segment part 653.           Intra module refs:   Segment part 211
    -------------------------------------------------------------------------
NEAR_CONST_ID
  Relative segment, address: 000037C4 - 000037CF (0xc bytes), align: 1
  Segment part 654.           Intra module refs:   Segment part 212
    -------------------------------------------------------------------------
NEAR_CONST_ID
  Relative segment, address: 000037D0 - 000037DD (0xe bytes), align: 1
  Segment part 655.           Intra module refs:   Segment part 213
    -------------------------------------------------------------------------
NEAR_CONST_ID
  Relative segment, address: 000037DE - 000037ED (0x10 bytes), align: 1
  Segment part 656.           Intra module refs:   Segment part 214
    -------------------------------------------------------------------------
NEAR_CONST_ID
  Relative segment, address: 000037EE - 000037FD (0x10 bytes), align: 1
  Segment part 657.           Intra module refs:   Segment part 215
    -------------------------------------------------------------------------
NEAR_CONST_ID
  Relative segment, address: 000037FE - 0000380D (0x10 bytes), align: 1
  Segment part 660.           Intra module refs:   Segment part 218
    -------------------------------------------------------------------------
NEAR_CONST_ID
  Relative segment, address: 0000380E - 0000381F (0x12 bytes), align: 1
  Segment part 661.           Intra module refs:   Segment part 219
    -------------------------------------------------------------------------
NEAR_CONST_ID
  Relative segment, address: 00003820 - 00003835 (0x16 bytes), align: 1
  Segment part 662.           Intra module refs:   Segment part 220
    -------------------------------------------------------------------------
NEAR_CONST_ID
  Relative segment, address: 00003836 - 0000385D (0x28 bytes), align: 1
  Segment part 663.           Intra module refs:   Segment part 221

    *************************************************************************

  FILE NAME : C:\Users\Steve\Dropbox\Kiln\CustomerProjects\RenesasDemo\Factory_Demo_Whisker\YRDKRL78G14\Debug\Obj\console.r87
    *************************************************************************

  FILE NAME : C:\Users\Steve\Dropbox\Kiln\CustomerProjects\RenesasDemo\Factory_Demo_Whisker\YRDKRL78G14\Debug\Obj\cpu_bsp.r87
    *************************************************************************

  FILE NAME : C:\Users\Steve\Dropbox\Kiln\CustomerProjects\RenesasDemo\Factory_Demo_Whisker\YRDKRL78G14\Debug\Obj\cpu_core.r87
    *************************************************************************

  FILE NAME : C:\Users\Steve\Dropbox\Kiln\CustomerProjects\RenesasDemo\Factory_Demo_Whisker\YRDKRL78G14\Debug\Obj\EEPROM.r87
  PROGRAM MODULE, NAME : EEPROM

  SEGMENTS IN THE MODULE
  ======================
CODE
  Relative segment, address: 00007154 - 00007154 (0x1 bytes), align: 0
  Segment part 2.
           ENTRY                   ADDRESS         REF BY
           =====                   =======         ======
           EEPROM_Open             00007154        NVSettingsLoad (NVSettings)
                                                   NVSettingsSave (NVSettings)
    -------------------------------------------------------------------------
CODE
  Relative segment, address: 00007155 - 00007220 (0xcc bytes), align: 0
  Segment part 4.
           ENTRY                   ADDRESS         REF BY
           =====                   =======         ======
           EEPROM_Write            00007155        AtLibGs_ReceiveDataProcess (AtCmdLib)
                                                   NVSettingsSave (NVSettings)
               calls direct
               CSTACK = 00000000 ( 0000003C )
    -------------------------------------------------------------------------
CODE
  Relative segment, address: 00007221 - 000072A0 (0x80 bytes), align: 0
  Segment part 7.
           ENTRY                   ADDRESS         REF BY
           =====                   =======         ======
           EEPROM_Read             00007221        NVSettingsLoad (NVSettings)
               calls direct
               CSTACK = 00000000 ( 00000016 )
    -------------------------------------------------------------------------
CODE
  Relative segment, address: 000072A1 - 00007362 (0xc2 bytes), align: 0
  Segment part 8.
           ENTRY                   ADDRESS         REF BY
           =====                   =======         ======
           EEPROM_Erase            000072A1        NVSettingsSave (NVSettings)
               calls direct
               CSTACK = 00000000 ( 0000003C )

    *************************************************************************

  FILE NAME : C:\Users\Steve\Dropbox\Kiln\CustomerProjects\RenesasDemo\Factory_Demo_Whisker\YRDKRL78G14\Debug\Obj\eink_driver.r87
  PROGRAM MODULE, NAME : eink_driver

  SEGMENTS IN THE MODULE
  ======================
SADDR_A
  Relative segment, address: 000FFF01 - 000FFF01 (0x1 bytes), align: 0
  Segment part 1. ROOT        Intra module refs:   PORT1 (led)
                                                   UpdateScreen
           ENTRY                   ADDRESS         REF BY
           =====                   =======         ======
           _A_P1                   000FFF01 
           LOCAL                   ADDRESS         
           =====                   =======         
           P1                      000FFF01 
           P1_bit                  000FFF01 
    -------------------------------------------------------------------------
SADDR_A
  Relative segment, address: 000FFF08 - 000FFF08 (0x1 bytes), align: 0
  Segment part 2. ROOT        Intra module refs:   Segment part 6 (RDKRL78_spi)
                                                   SetOutput
                                                   spiUartInitialize (xr20m1170)
           ENTRY                   ADDRESS         REF BY
           =====                   =======         ======
           _A_P8                   000FFF08 
           LOCAL                   ADDRESS         
           =====                   =======         
           P8                      000FFF08 
           P8_bit                  000FFF08 
    -------------------------------------------------------------------------
SADDR_A
  Relative segment, address: 000FFF0E - 000FFF0E (0x1 bytes), align: 0
  Segment part 3. ROOT        Intra module refs:   ConfigureOutputPorts (hwsetup)
                                                   LCD_SPI_CommandSend (glyph_register)
                                                   LCD_SPI_Open (glyph_register)
                                                   PORT14 (led)
                                                   Segment part 37 (SPI _G14)
                                                   Segment part 6 (RDKRL78_spi)
                                                   SetOutput
           ENTRY                   ADDRESS         REF BY
           =====                   =======         ======
           _A_P14                  000FFF0E 
           LOCAL                   ADDRESS         
           =====                   =======         
           P14                     000FFF0E 
           P14_bit                 000FFF0E 
    -------------------------------------------------------------------------
SADDR_A
  Relative segment, address: 000FFF0F - 000FFF0F (0x1 bytes), align: 0
  Segment part 4. ROOT        Intra module refs:   PORT15 (led)
                                                   SetOutput
                                                   main (main)
           ENTRY                   ADDRESS         REF BY
           =====                   =======         ======
           _A_P15                  000FFF0F 
           LOCAL                   ADDRESS         
           =====                   =======         
           P15                     000FFF0F 
           P15_bit                 000FFF0F 
    -------------------------------------------------------------------------
NEAR_A
  Relative segment, address: 000FFF21 - 000FFF21 (0x1 bytes), align: 0
  Segment part 5. ROOT        Intra module refs:   PORT1 (led)
           ENTRY                   ADDRESS         REF BY
           =====                   =======         ======
           _A_PM1                  000FFF21 
           LOCAL                   ADDRESS         
           =====                   =======         
           PM1                     000FFF21 
           PM1_bit                 000FFF21 
    -------------------------------------------------------------------------
NEAR_A
  Relative segment, address: 000FFF28 - 000FFF28 (0x1 bytes), align: 0
  Segment part 6. ROOT        Intra module refs:   spiUartInitialize (xr20m1170)
           ENTRY                   ADDRESS         REF BY
           =====                   =======         ======
           _A_PM8                  000FFF28 
           LOCAL                   ADDRESS         
           =====                   =======         
           PM8                     000FFF28 
           PM8_bit                 000FFF28 
    -------------------------------------------------------------------------
NEAR_A
  Relative segment, address: 000FFF2E - 000FFF2E (0x1 bytes), align: 0
  Segment part 7. ROOT        Intra module refs:   ConfigureOutputPorts (hwsetup)
                                                   LCD_SPI_Open (glyph_register)
                                                   PORT14 (led)
                                                   Segment part 39 (SPI _G14)
           ENTRY                   ADDRESS         REF BY
           =====                   =======         ======
           _A_PM14                 000FFF2E 
           LOCAL                   ADDRESS         
           =====                   =======         
           PM14                    000FFF2E 
           PM14_bit                000FFF2E 
    -------------------------------------------------------------------------
NEAR_A
  Relative segment, address: 000FFF2F - 000FFF2F (0x1 bytes), align: 0
  Segment part 8. ROOT        Intra module refs:   PORT15 (led)
                                                   main (main)
           ENTRY                   ADDRESS         REF BY
           =====                   =======         ======
           _A_PM15                 000FFF2F 
           LOCAL                   ADDRESS         
           =====                   =======         
           PM15                    000FFF2F 
           PM15_bit                000FFF2F 
    -------------------------------------------------------------------------
NEAR_CONST
  Relative segment, address: 000F385E - 000F3865 (0x8 bytes), align: 1
  Segment part 10.            Intra module refs:   UpdateScreen
           ENTRY                   ADDRESS         REF BY
           =====                   =======         ======
           allZeros                000F385E 
    -------------------------------------------------------------------------
NEAR_Z
  Relative segment, address: 000FAFD9 - 000FAFD9 (0x1 bytes), align: 0
  Segment part 11.            Intra module refs:   EinkDisplayFSM
           ENTRY                   ADDRESS         REF BY
           =====                   =======         ======
           changingState           000FAFD9 
    -------------------------------------------------------------------------
NEAR_Z
  Relative segment, address: 000FAFDA - 000FAFDA (0x1 bytes), align: 0
  Segment part 12.            Intra module refs:   EinkDisplayFSM
           ENTRY                   ADDRESS         REF BY
           =====                   =======         ======
           updateNum               000FAFDA 
    -------------------------------------------------------------------------
NEAR_Z
  Relative segment, address: 000FAFDB - 000FAFDB (0x1 bytes), align: 0
  Segment part 13.            Intra module refs:   ChangeEinkState
                                                   EinkDisplayFSM
           ENTRY                   ADDRESS         REF BY
           =====                   =======         ======
           curState                000FAFDB 
    -------------------------------------------------------------------------
NEAR_Z
  Relative segment, address: 000FAFDC - 000FAFDC (0x1 bytes), align: 0
  Segment part 15.            Intra module refs:   UpdateScreen
           ENTRY                   ADDRESS         REF BY
           =====                   =======         ======
           updateStep              000FAFDC 
    -------------------------------------------------------------------------
NEAR_Z
  Relative segment, address: 000FA43C - 000FA443 (0x8 bytes), align: 1
  Segment part 16.            Intra module refs:   UpdateScreen
           ENTRY                   ADDRESS         REF BY
           =====                   =======         ======
           curDisplay              000FA43C 
    -------------------------------------------------------------------------
NEAR_Z
  Relative segment, address: 000FA444 - 000FA44B (0x8 bytes), align: 1
  Segment part 17.            Intra module refs:   UpdateScreen
           ENTRY                   ADDRESS         REF BY
           =====                   =======         ======
           nextDisplay             000FA444 
    -------------------------------------------------------------------------
NEAR_I
  Relative segment, address: 000FA040 - 000FA040 (0x1 bytes), align: 0
  Segment part 18.            Intra module refs:   EinkDisplayFSM
                                                   UpdateScreen
           ENTRY                   ADDRESS         REF BY
           =====                   =======         ======
           updateType              000FA040 
    -------------------------------------------------------------------------
NEAR_Z
  Relative segment, address: 000FAFDD - 000FAFDD (0x1 bytes), align: 0
  Segment part 20.            Intra module refs:   EinkDisplayFSM
           ENTRY                   ADDRESS         REF BY
           =====                   =======         ======
           updateTypeDefault       000FAFDD 
    -------------------------------------------------------------------------
NEAR_Z
  Relative segment, address: 000FAFDE - 000FAFDE (0x1 bytes), align: 0
  Segment part 21.            Intra module refs:   EinkDisplayFSM
           ENTRY                   ADDRESS         REF BY
           =====                   =======         ======
           updateRequest           000FAFDE 
    -------------------------------------------------------------------------
NEAR_Z
  Relative segment, address: 000FAFDF - 000FAFDF (0x1 bytes), align: 0
  Segment part 22.            Intra module refs:   EinkDisplayFSM
                                                   UpdateScreen
           ENTRY                   ADDRESS         REF BY
           =====                   =======         ======
           einkDir                 000FAFDF 
    -------------------------------------------------------------------------
NEAR_Z
  Relative segment, address: 000FAFE0 - 000FAFE0 (0x1 bytes), align: 0
  Segment part 23.            Intra module refs:   EinkDisplayFSM
                                                   UpdateScreen
           ENTRY                   ADDRESS         REF BY
           =====                   =======         ======
           einkNextDir             000FAFE0 
    -------------------------------------------------------------------------
NEAR_Z
  Relative segment, address: 000FA44C - 000FA44D (0x2 bytes), align: 1
  Segment part 24.            Intra module refs:   TimerTick
                                                   UpdateScreen
           ENTRY                   ADDRESS         REF BY
           =====                   =======         ======
           delayFsmTicks           000FA44C 
    -------------------------------------------------------------------------
NEAR_I
  Relative segment, address: 000F9F6E - 000F9F6F (0x2 bytes), align: 1
  Segment part 25.            Intra module refs:   UpdateScreen
           ENTRY                   ADDRESS         REF BY
           =====                   =======         ======
           segDelayHolder          000F9F6E 
    -------------------------------------------------------------------------
NEAR_I
  Relative segment, address: 000F9F70 - 000F9F71 (0x2 bytes), align: 1
  Segment part 27.            Intra module refs:   UpdateScreen
           ENTRY                   ADDRESS         REF BY
           =====                   =======         ======
           picketShortHolder       000F9F70 
    -------------------------------------------------------------------------
NEAR_I
  Relative segment, address: 000FA041 - 000FA041 (0x1 bytes), align: 0
  Segment part 29.            Intra module refs:   EinkDisplayFSM
                                                   TimerTick
                                                   UpdateScreen
           ENTRY                   ADDRESS         REF BY
           =====                   =======         ======
           delayFsmFlag            000FA041 
    -------------------------------------------------------------------------
CODE
  Relative segment, address: 00007363 - 000073CC (0x6a bytes), align: 0
  Segment part 41.            Intra module refs:   UpdateScreen
           ENTRY                   ADDRESS         REF BY
           =====                   =======         ======
           SetOutput               00007363 
               CSTACK = 00000000 ( 00000004 )
    -------------------------------------------------------------------------
CODE
  Relative segment, address: 000073CD - 00007847 (0x47b bytes), align: 0
  Segment part 43.            Intra module refs:   EinkDisplayFSM
           ENTRY                   ADDRESS         REF BY
           =====                   =======         ======
           UpdateScreen            000073CD 
               calls direct
               CSTACK = 00000000 ( 0000000A )
    -------------------------------------------------------------------------
CODE
  Relative segment, address: 00007848 - 0000784B (0x4 bytes), align: 0
  Segment part 44.            Intra module refs:   EinkDisplayFSM
                                                   UpdateScreen
           ENTRY                   ADDRESS         REF BY
           =====                   =======         ======
           ChangeEinkState         00007848 
    -------------------------------------------------------------------------
CODE
  Relative segment, address: 0000784C - 000078B4 (0x69 bytes), align: 0
  Segment part 45.
           ENTRY                   ADDRESS         REF BY
           =====                   =======         ======
           EinkDisplayFSM          0000784C        Interrupt_Timer (Timer)
               calls direct
    -------------------------------------------------------------------------
CODE
  Relative segment, address: 000078B5 - 000078CC (0x18 bytes), align: 0
  Segment part 46.
           ENTRY                   ADDRESS         REF BY
           =====                   =======         ======
           TimerTick               000078B5        Interrupt_Timer (Timer)
    -------------------------------------------------------------------------
NEAR_ID
  Relative segment, address: 0000B736 - 0000B736 (0x1 bytes), align: 0
  Segment part 19.            Intra module refs:   updateType
    -------------------------------------------------------------------------
NEAR_ID
  Relative segment, address: 0000B664 - 0000B665 (0x2 bytes), align: 1
  Segment part 26.            Intra module refs:   segDelayHolder
    -------------------------------------------------------------------------
NEAR_ID
  Relative segment, address: 0000B666 - 0000B667 (0x2 bytes), align: 1
  Segment part 28.            Intra module refs:   picketShortHolder
    -------------------------------------------------------------------------
NEAR_ID
  Relative segment, address: 0000B737 - 0000B737 (0x1 bytes), align: 0
  Segment part 30.            Intra module refs:   delayFsmFlag
    -------------------------------------------------------------------------
NEAR_CONST_ID
  Relative segment, address: 0000385E - 00003865 (0x8 bytes), align: 1
  Segment part 54.            Intra module refs:   allZeros

    *************************************************************************

  FILE NAME : C:\Users\Steve\Dropbox\Kiln\CustomerProjects\RenesasDemo\Factory_Demo_Whisker\YRDKRL78G14\Debug\Obj\eink_rdk_display.r87
    *************************************************************************

  FILE NAME : C:\Users\Steve\Dropbox\Kiln\CustomerProjects\RenesasDemo\Factory_Demo_Whisker\YRDKRL78G14\Debug\Obj\GainSpan_IO.r87
  PROGRAM MODULE, NAME : GainSpan_IO

  SEGMENTS IN THE MODULE
  ======================
SADDR_A
  Relative segment, address: 000FFF07 - 000FFF07 (0x1 bytes), align: 0
  Segment part 1. ROOT        Intra module refs:   GainSpan_IO_IsDataReady
                                                   PORT7 (led)
                                                   R_CSI21_Create (r_cg_serial)
                                                   Segment part 37 (SPI _G14)
                                                   Switch2IsPressed (Switch)
           ENTRY                   ADDRESS         REF BY
           =====                   =======         ======
           _A_P7                   000FFF07 
           LOCAL                   ADDRESS         
           =====                   =======         
           P7                      000FFF07 
           P7_bit                  000FFF07 
    -------------------------------------------------------------------------
CODE
  Relative segment, address: 000078CD - 00007900 (0x34 bytes), align: 0
  Segment part 3.
           ENTRY                   ADDRESS         REF BY
           =====                   =======         ======
           GainSpan_IO_IsDataReady
                                   000078CD        GainSpan_SPI_IsDataReady (GainSpan_SPI)

    *************************************************************************

  FILE NAME : C:\Users\Steve\Dropbox\Kiln\CustomerProjects\RenesasDemo\Factory_Demo_Whisker\YRDKRL78G14\Debug\Obj\GainSpan_SPI.r87
  PROGRAM MODULE, NAME : GainSpan_SPI

  SEGMENTS IN THE MODULE
  ======================
NEAR_Z
  Relative segment, address: 000FA44E - 000FA54D (0x100 bytes), align: 1
  Segment part 2.             Intra module refs:   GainSpan_SPI_ProcessIncomingChar
                                                   GainSpan_SPI_ReceiveByte
           LOCAL                   ADDRESS         
           =====                   =======         
           G_GainSpan_SPI_RXBuffer
                                   000FA44E 
    -------------------------------------------------------------------------
NEAR_Z
  Relative segment, address: 000FA54E - 000FA54F (0x2 bytes), align: 1
  Segment part 3.             Intra module refs:   GainSpan_SPI_ProcessIncoming
                                                   GainSpan_SPI_ProcessIncomingChar
                                                   GainSpan_SPI_ReceiveByte
                                                   GainSpan_SPI_Start
           LOCAL                   ADDRESS         
           =====                   =======         
           G_GainSpan_SPI_RXIn     000FA54E 
    -------------------------------------------------------------------------
NEAR_Z
  Relative segment, address: 000FA550 - 000FA551 (0x2 bytes), align: 1
  Segment part 4.             Intra module refs:   GainSpan_SPI_ProcessIncoming
                                                   GainSpan_SPI_ProcessIncomingChar
                                                   GainSpan_SPI_ReceiveByte
                                                   GainSpan_SPI_Start
           LOCAL                   ADDRESS         
           =====                   =======         
           G_GainSpan_SPI_RXOut    000FA550 
    -------------------------------------------------------------------------
NEAR_Z
  Relative segment, address: 000FA552 - 000FA5D1 (0x80 bytes), align: 1
  Segment part 5.             Intra module refs:   GainSpan_SPI_ProcessIncoming
                                                   GainSpan_SPI_SendByteLowLevel
                                                   GainSpan_SPI_Update
           LOCAL                   ADDRESS         
           =====                   =======         
           G_GainSpan_SPI_TXBuffer
                                   000FA552 
    -------------------------------------------------------------------------
NEAR_Z
  Relative segment, address: 000FA5D2 - 000FA5D3 (0x2 bytes), align: 1
  Segment part 6.             Intra module refs:   GainSpan_SPI_SendByte
                                                   GainSpan_SPI_SendByteLowLevel
                                                   GainSpan_SPI_Start
                                                   GainSpan_SPI_Update
           LOCAL                   ADDRESS         
           =====                   =======         
           G_GainSpan_SPI_TXIn     000FA5D2 
    -------------------------------------------------------------------------
NEAR_Z
  Relative segment, address: 000FA5D4 - 000FA5D5 (0x2 bytes), align: 1
  Segment part 7.             Intra module refs:   GainSpan_SPI_ProcessIncoming
                                                   GainSpan_SPI_SendByte
                                                   GainSpan_SPI_SendByteLowLevel
                                                   GainSpan_SPI_Start
                                                   GainSpan_SPI_Update
           LOCAL                   ADDRESS         
           =====                   =======         
           G_GainSpan_SPI_TXOut    000FA5D4 
    -------------------------------------------------------------------------
NEAR_Z
  Relative segment, address: 000FAFE1 - 000FAFE1 (0x1 bytes), align: 0
  Segment part 8.             Intra module refs:   GainSpan_SPI_Start
           LOCAL                   ADDRESS         
           =====                   =======         
           G_GainSpan_SPI_TX_Empty
                                   000FAFE1 
    -------------------------------------------------------------------------
NEAR_Z
  Relative segment, address: 000FAFE2 - 000FAFE2 (0x1 bytes), align: 0
  Segment part 9.             Intra module refs:   GainSpan_SPI_Start
                                                   GainSpan_SPI_Update
                                                   IGainSpan_SPI_TransferComplete
           LOCAL                   ADDRESS         
           =====                   =======         
           G_GainSpan_SPI_IsTransferComplete
                                   000FAFE2 
    -------------------------------------------------------------------------
NEAR_Z
  Relative segment, address: 000FAFE3 - 000FAFE3 (0x1 bytes), align: 0
  Segment part 10.            Intra module refs:   GainSpan_SPI_Start
                                                   GainSpan_SPI_Update
           LOCAL                   ADDRESS         
           =====                   =======         
           G_GainSpan_SPI_IsTransferActive
                                   000FAFE3 
    -------------------------------------------------------------------------
NEAR_Z
  Relative segment, address: 000FA5D6 - 000FA5D7 (0x2 bytes), align: 1
  Segment part 11.            Intra module refs:   GainSpan_SPI_ProcessIncoming
                                                   GainSpan_SPI_Start
                                                   GainSpan_SPI_Update
           LOCAL                   ADDRESS         
           =====                   =======         
           G_GainSpan_SPI_NumSent
                                   000FA5D6 
    -------------------------------------------------------------------------
NEAR_Z
  Relative segment, address: 000FAFE4 - 000FAFE4 (0x1 bytes), align: 0
  Segment part 12.            Intra module refs:   GainSpan_SPI_ProcessIncomingChar
                                                   GainSpan_SPI_Start
           LOCAL                   ADDRESS         
           =====                   =======         
           G_GainSpan_SPI_EscapeCode
                                   000FAFE4 
    -------------------------------------------------------------------------
NEAR_Z
  Relative segment, address: 000FAFE5 - 000FAFE5 (0x1 bytes), align: 0
  Segment part 13.            Intra module refs:   GainSpan_SPI_ProcessIncoming
                                                   GainSpan_SPI_ProcessIncomingChar
                                                   GainSpan_SPI_Start
                                                   GainSpan_SPI_Update
           LOCAL                   ADDRESS         
           =====                   =======         
           G_GainSpan_SPI_CanTransmit
                                   000FAFE5 
    -------------------------------------------------------------------------
NEAR_Z
  Relative segment, address: 000FAFE6 - 000FAFE6 (0x1 bytes), align: 0
  Segment part 14.            Intra module refs:   GainSpan_SPI_ProcessIncomingChar
                                                   GainSpan_SPI_Start
           LOCAL                   ADDRESS         
           =====                   =======         
           G_GainSpan_SPI_IsLinkActive
                                   000FAFE6 
    -------------------------------------------------------------------------
NEAR_Z
  Relative segment, address: 000FAFE7 - 000FAFE7 (0x1 bytes), align: 0
  Segment part 15.            Intra module refs:   GainSpan_SPI_ProcessIncoming
                                                   GainSpan_SPI_Update
           LOCAL                   ADDRESS         
           =====                   =======         
           G_GainSpan_SPI_XONIdleChar
                                   000FAFE7 
    -------------------------------------------------------------------------
CODE
  Relative segment, address: 00007901 - 00007931 (0x31 bytes), align: 0
  Segment part 16.
           ENTRY                   ADDRESS         REF BY
           =====                   =======         ======
           GainSpan_SPI_Start      00007901        main (main)
    -------------------------------------------------------------------------
CODE
  Relative segment, address: 00007932 - 00007936 (0x5 bytes), align: 0
  Segment part 18.            Intra module refs:   GainSpan_SPI_Update
           LOCAL                   ADDRESS         
           =====                   =======         
           IGainSpan_SPI_TransferComplete
                                   00007932 
    -------------------------------------------------------------------------
CODE
  Relative segment, address: 00007937 - 000079CD (0x97 bytes), align: 0
  Segment part 19.            Intra module refs:   GainSpan_SPI_ProcessIncoming
           LOCAL                   ADDRESS         
           =====                   =======         
           GainSpan_SPI_ProcessIncomingChar
                                   00007937 
               CSTACK = 00000000 ( 00000004 )
    -------------------------------------------------------------------------
CODE
  Relative segment, address: 000079CE - 00007A38 (0x6b bytes), align: 0
  Segment part 20.            Intra module refs:   GainSpan_SPI_Update
           LOCAL                   ADDRESS         
           =====                   =======         
           GainSpan_SPI_ProcessIncoming
                                   000079CE 
               calls direct
               CSTACK = 00000000 ( 00000006 )
    -------------------------------------------------------------------------
CODE
  Relative segment, address: 00007A39 - 00007A40 (0x8 bytes), align: 0
  Segment part 21.            Intra module refs:   GainSpan_SPI_Update
           ENTRY                   ADDRESS         REF BY
           =====                   =======         ======
           GainSpan_SPI_IsDataReady
                                   00007A39 
               calls direct
               CSTACK = 00000000 ( 00000002 )
    -------------------------------------------------------------------------
CODE
  Relative segment, address: 00007A41 - 00007AE0 (0xa0 bytes), align: 0
  Segment part 22.            Intra module refs:   GainSpan_SPI_ReceiveByte
           ENTRY                   ADDRESS         REF BY
           =====                   =======         ======
           GainSpan_SPI_Update     00007A41        App_Write (GSHAL)
               calls direct
               CSTACK = 00000000 ( 0000000E )
    -------------------------------------------------------------------------
CODE
  Relative segment, address: 00007AE1 - 00007B17 (0x37 bytes), align: 0
  Segment part 24.
           ENTRY                   ADDRESS         REF BY
           =====                   =======         ======
           GainSpan_SPI_ReceiveByte
                                   00007AE1        App_Read (GSHAL)
               calls direct
               CSTACK = 00000000 ( 00000004 )
    -------------------------------------------------------------------------
CODE
  Relative segment, address: 00007B18 - 00007B4E (0x37 bytes), align: 0
  Segment part 25.            Intra module refs:   GainSpan_SPI_SendByte
                                                   GainSpan_SPI_Update
           ENTRY                   ADDRESS         REF BY
           =====                   =======         ======
           GainSpan_SPI_SendByteLowLevel
                                   00007B18 
               CSTACK = 00000000 ( 00000004 )
    -------------------------------------------------------------------------
CODE
  Relative segment, address: 00007B4F - 00007BA6 (0x58 bytes), align: 0
  Segment part 26.
           ENTRY                   ADDRESS         REF BY
           =====                   =======         ======
           GainSpan_SPI_SendByte   00007B4F        App_Write (GSHAL)
               calls direct
               CSTACK = 00000000 ( 00000004 )

    *************************************************************************

  FILE NAME : C:\Users\Steve\Dropbox\Kiln\CustomerProjects\RenesasDemo\Factory_Demo_Whisker\YRDKRL78G14\Debug\Obj\glyph_register.r87
  PROGRAM MODULE, NAME : glyph_register

  SEGMENTS IN THE MODULE
  ======================
CODE
  Relative segment, address: 00007BA7 - 00007BB0 (0xa bytes), align: 0
  Segment part 4.             Intra module refs:   GlyphCommOpen
           ENTRY                   ADDRESS         REF BY
           =====                   =======         ======
           LCD_SPI_Open            00007BA7 
    -------------------------------------------------------------------------
CODE
  Relative segment, address: 00007BB1 - 00007BCC (0x1c bytes), align: 0
  Segment part 5.             Intra module refs:   GlyphCommOpen
           ENTRY                   ADDRESS         REF BY
           =====                   =======         ======
           LCD_SPI_CommandSend     00007BB1 
               calls direct
               CSTACK = 00000000 ( 00000006 )
    -------------------------------------------------------------------------
CODE
  Relative segment, address: 00007BCD - 00007BE2 (0x16 bytes), align: 0
  Segment part 6.             Intra module refs:   GlyphCommOpen
           ENTRY                   ADDRESS         REF BY
           =====                   =======         ======
           LCD_SPI_DataSend        00007BCD 
               calls direct
               CSTACK = 00000000 ( 00000006 )
    -------------------------------------------------------------------------
CODE
  Relative segment, address: 00007BE3 - 00007C22 (0x40 bytes), align: 0
  Segment part 7.
           ENTRY                   ADDRESS         REF BY
           =====                   =======         ======
           GlyphCommOpen           00007BE3        GlyphOpen (glyph)
               calls indirect
               CSTACK = 00000000 ( 00000008 )
    -------------------------------------------------------------------------
CODE
  Relative segment, address: 00007C23 - 00007C58 (0x36 bytes), align: 0
  Segment part 8.
           ENTRY                   ADDRESS         REF BY
           =====                   =======         ======
           GlyphLCDOpen            00007C23        GlyphOpen (glyph)
               CSTACK = 00000000 ( 00000004 )

    *************************************************************************

  FILE NAME : C:\Users\Steve\Dropbox\Kiln\CustomerProjects\RenesasDemo\Factory_Demo_Whisker\YRDKRL78G14\Debug\Obj\GSHAL.r87
  PROGRAM MODULE, NAME : GSHAL

  SEGMENTS IN THE MODULE
  ======================
NEAR_Z
  Relative segment, address: 000FA5D8 - 000FABB5 (0x5de bytes), align: 1
  Segment part 7.             Intra module refs:   App_PrepareIncomingData
                                                   App_ProcessIncomingData
           ENTRY                   ADDRESS         REF BY
           =====                   =======         ======
           G_received              000FA5D8        App_WhiskerGW (App_WhiskerGW)
                                                   mqtt_read_packet (mqtt)
    -------------------------------------------------------------------------
NEAR_Z
  Relative segment, address: 000FABB6 - 000FABB7 (0x2 bytes), align: 1
  Segment part 8.             Intra module refs:   App_PrepareIncomingData
                                                   App_ProcessIncomingData
           ENTRY                   ADDRESS         REF BY
           =====                   =======         ======
           G_receivedCount         000FABB6        App_WhiskerGW (App_WhiskerGW)
                                                   mqtt_read_packet (mqtt)
    -------------------------------------------------------------------------
CODE
  Relative segment, address: 00007C59 - 00007C7A (0x22 bytes), align: 0
  Segment part 9.
           ENTRY                   ADDRESS         REF BY
           =====                   =======         ======
           App_Write               00007C59        AtLibGs_CommandSendString (AtCmdLib)
                                                   AtLibGs_DataSend (AtCmdLib)
                                                   AtLibGs_SendTCPData (AtCmdLib)
               calls direct
               CSTACK = 00000000 ( 00000004 )
    -------------------------------------------------------------------------
CODE
  Relative segment, address: 00007C7B - 00007CAC (0x32 bytes), align: 0
  Segment part 10.
           ENTRY                   ADDRESS         REF BY
           =====                   =======         ======
           App_Read                00007C7B        AtLibGs_FlushIncomingMessage (AtCmdLib)
                                                   AtLibGs_GetWebProvSettings (AtCmdLib)
                                                   AtLibGs_ReceiveDataProcess (AtCmdLib)
                                                   AtLibGs_ResponseHandle (AtCmdLib)
                                                   AtLibGs_WaitForTCPMessage (AtCmdLib)
               calls direct
               CSTACK = 00000000 ( 00000006 )
    -------------------------------------------------------------------------
CODE
  Relative segment, address: 00007CAD - 00007CB7 (0xb bytes), align: 0
  Segment part 15.
           ENTRY                   ADDRESS         REF BY
           =====                   =======         ======
           App_PrepareIncomingData
                                   00007CAD        App_ConnectMqtt (App_WhiskerGW)
                                                   mqtt_connect (mqtt)
    -------------------------------------------------------------------------
CODE
  Relative segment, address: 00007CB8 - 00007CD7 (0x20 bytes), align: 0
  Segment part 16.
           ENTRY                   ADDRESS         REF BY
           =====                   =======         ======
           App_ProcessIncomingData
                                   00007CB8        AtLibGs_ReceiveDataProcess (AtCmdLib)
               CSTACK = 00000000 ( 00000002 )

    *************************************************************************

  FILE NAME : C:\Users\Steve\Dropbox\Kiln\CustomerProjects\RenesasDemo\Factory_Demo_Whisker\YRDKRL78G14\Debug\Obj\hwsetup.r87
  PROGRAM MODULE, NAME : hwsetup

  SEGMENTS IN THE MODULE
  ======================
NEAR_A
  Relative segment, address: 000FFFA0 - 000FFFA0 (0x1 bytes), align: 0
  Segment part 3. ROOT        Intra module refs:   ConfigureOperatingFrequency
           ENTRY                   ADDRESS         REF BY
           =====                   =======         ======
           _A_CMC                  000FFFA0 
           LOCAL                   ADDRESS         
           =====                   =======         
           CMC                     000FFFA0 
           CMC_bit                 000FFFA0 
    -------------------------------------------------------------------------
NEAR_A
  Relative segment, address: 000FFFA1 - 000FFFA1 (0x1 bytes), align: 0
  Segment part 4. ROOT        Intra module refs:   ConfigureOperatingFrequency
           ENTRY                   ADDRESS         REF BY
           =====                   =======         ======
           _A_CSC                  000FFFA1 
           LOCAL                   ADDRESS         
           =====                   =======         
           CSC                     000FFFA1 
           CSC_bit                 000FFFA1 
    -------------------------------------------------------------------------
NEAR_A
  Relative segment, address: 000FFFA2 - 000FFFA2 (0x1 bytes), align: 0
  Segment part 5. ROOT        Intra module refs:   ConfigureOperatingFrequency
           ENTRY                   ADDRESS         REF BY
           =====                   =======         ======
           _A_OSTC                 000FFFA2 
           LOCAL                   ADDRESS         
           =====                   =======         
           OSTC                    000FFFA2 
           OSTC_bit                000FFFA2 
    -------------------------------------------------------------------------
NEAR_A
  Relative segment, address: 000FFFA3 - 000FFFA3 (0x1 bytes), align: 0
  Segment part 6. ROOT        Intra module refs:   ConfigureOperatingFrequency
           ENTRY                   ADDRESS         REF BY
           =====                   =======         ======
           _A_OSTS                 000FFFA3 
           LOCAL                   ADDRESS         
           =====                   =======         
           OSTS                    000FFFA3 
           OSTS_bit                000FFFA3 
    -------------------------------------------------------------------------
NEAR_A
  Relative segment, address: 000FFFA4 - 000FFFA4 (0x1 bytes), align: 0
  Segment part 7. ROOT        Intra module refs:   ConfigureOperatingFrequency
           ENTRY                   ADDRESS         REF BY
           =====                   =======         ======
           _A_CKC                  000FFFA4 
           LOCAL                   ADDRESS         
           =====                   =======         
           CKC                     000FFFA4 
           CKC_bit                 000FFFA4 
    -------------------------------------------------------------------------
NEAR_A
  Relative segment, address: 000F0077 - 000F0077 (0x1 bytes), align: 0
  Segment part 8. ROOT        Intra module refs:   HardwareSetup
           ENTRY                   ADDRESS         REF BY
           =====                   =======         ======
           _A_PIOR0                000F0077 
           LOCAL                   ADDRESS         
           =====                   =======         
           PIOR0                   000F0077 
           PIOR0_bit               000F0077 
    -------------------------------------------------------------------------
NEAR_A
  Relative segment, address: 000F0078 - 000F0078 (0x1 bytes), align: 0
  Segment part 9. ROOT        Intra module refs:   HardwareSetup
           ENTRY                   ADDRESS         REF BY
           =====                   =======         ======
           _A_IAWCTL               000F0078 
           LOCAL                   ADDRESS         
           =====                   =======         
           IAWCTL                  000F0078 
           IAWCTL_bit              000F0078 
    -------------------------------------------------------------------------
NEAR_A
  Relative segment, address: 000F0079 - 000F0079 (0x1 bytes), align: 0
  Segment part 10. ROOT       Intra module refs:   HardwareSetup
           ENTRY                   ADDRESS         REF BY
           =====                   =======         ======
           _A_PIOR1                000F0079 
           LOCAL                   ADDRESS         
           =====                   =======         
           PIOR1                   000F0079 
           PIOR1_bit               000F0079 
    -------------------------------------------------------------------------
NEAR_A
  Relative segment, address: 000F007B - 000F007B (0x1 bytes), align: 0
  Segment part 11. ROOT       Intra module refs:   HardwareSetup
           ENTRY                   ADDRESS         REF BY
           =====                   =======         ======
           _A_PMS                  000F007B 
           LOCAL                   ADDRESS         
           =====                   =======         
           PMS                     000F007B 
           PMS_bit                 000F007B 
    -------------------------------------------------------------------------
NEAR_A
  Relative segment, address: 000F00F3 - 000F00F3 (0x1 bytes), align: 0
  Segment part 12. ROOT       Intra module refs:   ConfigureOperatingFrequency
           ENTRY                   ADDRESS         REF BY
           =====                   =======         ======
           _A_OSMC                 000F00F3 
           LOCAL                   ADDRESS         
           =====                   =======         
           OSMC                    000F00F3 
           OSMC_bit                000F00F3 
    -------------------------------------------------------------------------
NEAR_A
  Relative segment, address: 000F02F0 - 000F02F0 (0x1 bytes), align: 0
  Segment part 13. ROOT       Intra module refs:   HardwareSetup
           ENTRY                   ADDRESS         REF BY
           =====                   =======         ======
           _A_CRC0CTL              000F02F0 
           LOCAL                   ADDRESS         
           =====                   =======         
           CRC0CTL                 000F02F0 
           CRC0CTL_bit             000F02F0 
    -------------------------------------------------------------------------
CODE
  Relative segment, address: 00007CD8 - 00007CFE (0x27 bytes), align: 0
  Segment part 15.
           ENTRY                   ADDRESS         REF BY
           =====                   =======         ======
           HardwareSetup           00007CD8        main (main)
               calls direct
    -------------------------------------------------------------------------
CODE
  Relative segment, address: 00007CFF - 00007D44 (0x46 bytes), align: 0
  Segment part 16.            Intra module refs:   HardwareSetup
           ENTRY                   ADDRESS         REF BY
           =====                   =======         ======
           ConfigureOperatingFrequency
                                   00007CFF 
               CSTACK = 00000000 ( 00000004 )
    -------------------------------------------------------------------------
CODE
  Relative segment, address: 00007D45 - 00007D4B (0x7 bytes), align: 0
  Segment part 17.            Intra module refs:   HardwareSetup
           ENTRY                   ADDRESS         REF BY
           =====                   =======         ======
           ConfigureOutputPorts    00007D45 
    -------------------------------------------------------------------------
CODE
  Relative segment, address: 00007D4C - 00007D4C (0x1 bytes), align: 0
  Segment part 18.            Intra module refs:   HardwareSetup
           ENTRY                   ADDRESS         REF BY
           =====                   =======         ======
           ConfigureInterrupts     00007D4C 
    -------------------------------------------------------------------------
CODE
  Relative segment, address: 00007D4D - 00007D4D (0x1 bytes), align: 0
  Segment part 19.            Intra module refs:   HardwareSetup
           ENTRY                   ADDRESS         REF BY
           =====                   =======         ======
           EnablePeripheralModules
                                   00007D4D 

    *************************************************************************

  FILE NAME : C:\Users\Steve\Dropbox\Kiln\CustomerProjects\RenesasDemo\Factory_Demo_Whisker\YRDKRL78G14\Debug\Obj\I2C.r87
  PROGRAM MODULE, NAME : I2C

  SEGMENTS IN THE MODULE
  ======================
SADDR_A
  Relative segment, address: 000FFF06 - 000FFF06 (0x1 bytes), align: 0
  Segment part 1. ROOT        Intra module refs:   I2C_Start
                                                   PORT6 (led)
           ENTRY                   ADDRESS         REF BY
           =====                   =======         ======
           _A_P6                   000FFF06 
           LOCAL                   ADDRESS         
           =====                   =======         
           P6                      000FFF06 
           P6_bit                  000FFF06 
    -------------------------------------------------------------------------
NEAR_A
  Relative segment, address: 000FFF26 - 000FFF26 (0x1 bytes), align: 0
  Segment part 2. ROOT        Intra module refs:   I2C_Start
                                                   PORT6 (led)
           ENTRY                   ADDRESS         REF BY
           =====                   =======         ======
           _A_PM6                  000FFF26 
           LOCAL                   ADDRESS         
           =====                   =======         
           PM6                     000FFF26 
           PM6_bit                 000FFF26 
    -------------------------------------------------------------------------
NEAR_A
  Relative segment, address: 000FFF50 - 000FFF50 (0x1 bytes), align: 0
  Segment part 3. ROOT        Intra module refs:   I2C_MasterHandler
                                                   I2C_Read
                                                   I2C_Write
           ENTRY                   ADDRESS         REF BY
           =====                   =======         ======
           _A_IICA0                000FFF50 
           LOCAL                   ADDRESS         
           =====                   =======         
           IICA0                   000FFF50 
           IICA0_bit               000FFF50 
    -------------------------------------------------------------------------
NEAR_A
  Relative segment, address: 000FFF51 - 000FFF51 (0x1 bytes), align: 0
  Segment part 4. ROOT        Intra module refs:   I2C_InterruptHandler
                                                   I2C_MasterHandler
           ENTRY                   ADDRESS         REF BY
           =====                   =======         ======
           _A_IICS0                000FFF51 
           LOCAL                   ADDRESS         
           =====                   =======         
           IICS0                   000FFF51 
           IICS0_bit               000FFF51 
    -------------------------------------------------------------------------
NEAR_A
  Relative segment, address: 000FFF52 - 000FFF52 (0x1 bytes), align: 0
  Segment part 5. ROOT        Intra module refs:   I2C_IsBusy
                                                   I2C_MasterHandler
                                                   I2C_Read
                                                   I2C_Start
                                                   I2C_Write
           ENTRY                   ADDRESS         REF BY
           =====                   =======         ======
           _A_IICF0                000FFF52 
           LOCAL                   ADDRESS         
           =====                   =======         
           IICF0                   000FFF52 
           IICF0_bit               000FFF52 
    -------------------------------------------------------------------------
NEAR_A
  Relative segment, address: 000F0230 - 000F0230 (0x1 bytes), align: 0
  Segment part 11. ROOT       Intra module refs:   I2C_MasterHandler
                                                   I2C_Read
                                                   I2C_Start
                                                   I2C_Write
           ENTRY                   ADDRESS         REF BY
           =====                   =======         ======
           _A_IICCTL00             000F0230 
           LOCAL                   ADDRESS         
           =====                   =======         
           IICCTL00                000F0230 
           IICCTL00_bit            000F0230 
    -------------------------------------------------------------------------
NEAR_A
  Relative segment, address: 000F0231 - 000F0231 (0x1 bytes), align: 0
  Segment part 12. ROOT       Intra module refs:   I2C_Start
           ENTRY                   ADDRESS         REF BY
           =====                   =======         ======
           _A_IICCTL01             000F0231 
           LOCAL                   ADDRESS         
           =====                   =======         
           IICCTL01                000F0231 
           IICCTL01_bit            000F0231 
    -------------------------------------------------------------------------
NEAR_A
  Relative segment, address: 000F0232 - 000F0232 (0x1 bytes), align: 0
  Segment part 13. ROOT       Intra module refs:   I2C_SetSpeed
           ENTRY                   ADDRESS         REF BY
           =====                   =======         ======
           _A_IICWL0               000F0232 
           LOCAL                   ADDRESS         
           =====                   =======         
           IICWL0                  000F0232 
           IICWL0_bit              000F0232 
    -------------------------------------------------------------------------
NEAR_A
  Relative segment, address: 000F0233 - 000F0233 (0x1 bytes), align: 0
  Segment part 14. ROOT       Intra module refs:   I2C_SetSpeed
           ENTRY                   ADDRESS         REF BY
           =====                   =======         ======
           _A_IICWH0               000F0233 
           LOCAL                   ADDRESS         
           =====                   =======         
           IICWH0                  000F0233 
           IICWH0_bit              000F0233 
    -------------------------------------------------------------------------
NEAR_A
  Relative segment, address: 000F0234 - 000F0234 (0x1 bytes), align: 0
  Segment part 15. ROOT       Intra module refs:   I2C_Start
           ENTRY                   ADDRESS         REF BY
           =====                   =======         ======
           _A_SVA0                 000F0234 
           LOCAL                   ADDRESS         
           =====                   =======         
           SVA0                    000F0234 
           SVA0_bit                000F0234 
    -------------------------------------------------------------------------
NEAR_Z
  Relative segment, address: 000FABB8 - 000FABB9 (0x2 bytes), align: 1
  Segment part 18.            Intra module refs:   I2C_MasterHandler
                                                   I2C_Read
                                                   I2C_Write
           LOCAL                   ADDRESS         
           =====                   =======         
           G_I2C_Request           000FABB8 
    -------------------------------------------------------------------------
NEAR_Z
  Relative segment, address: 000FAFE8 - 000FAFE8 (0x1 bytes), align: 0
  Segment part 19.            Intra module refs:   I2C_Read
                                                   I2C_Write
           LOCAL                   ADDRESS         
           =====                   =======         
           G_I2C_Address           000FAFE8 
    -------------------------------------------------------------------------
NEAR_Z
  Relative segment, address: 000FABBA - 000FABBB (0x2 bytes), align: 1
  Segment part 20.            Intra module refs:   I2C_MasterHandler
                                                   I2C_Read
                                                   I2C_Write
           LOCAL                   ADDRESS         
           =====                   =======         
           G_I2C_Data              000FABBA 
    -------------------------------------------------------------------------
NEAR_Z
  Relative segment, address: 000FAFE9 - 000FAFE9 (0x1 bytes), align: 0
  Segment part 21.            Intra module refs:   I2C_MasterHandler
                                                   I2C_Read
                                                   I2C_Write
           LOCAL                   ADDRESS         
           =====                   =======         
           G_I2C_DataLen           000FAFE9 
    -------------------------------------------------------------------------
NEAR_Z
  Relative segment, address: 000FAFEA - 000FAFEA (0x1 bytes), align: 0
  Segment part 22.            Intra module refs:   I2C_MasterHandler
                                                   I2C_Write
           LOCAL                   ADDRESS         
           =====                   =======         
           G_I2C_TXCount           000FAFEA 
    -------------------------------------------------------------------------
NEAR_Z
  Relative segment, address: 000FAFEB - 000FAFEB (0x1 bytes), align: 0
  Segment part 23.            Intra module refs:   I2C_MasterHandler
                                                   I2C_Read
           LOCAL                   ADDRESS         
           =====                   =======         
           G_I2C_RXCount           000FAFEB 
    -------------------------------------------------------------------------
NEAR_Z
  Relative segment, address: 000FABBC - 000FABBD (0x2 bytes), align: 1
  Segment part 24.            Intra module refs:   I2C_MasterHandler
                                                   I2C_Read
                                                   I2C_Write
           LOCAL                   ADDRESS         
           =====                   =======         
           G_I2C_CompleteFunc      000FABBC 
    -------------------------------------------------------------------------
NEAR_Z
  Relative segment, address: 000FAFEC - 000FAFEC (0x1 bytes), align: 0
  Segment part 25.            Intra module refs:   I2C_MasterHandler
                                                   I2C_Read
                                                   I2C_Write
           LOCAL                   ADDRESS         
           =====                   =======         
           G_I2C_State             000FAFEC 
    -------------------------------------------------------------------------
CODE
  Relative segment, address: 00007D4E - 00007D8D (0x40 bytes), align: 0
  Segment part 26.            Intra module refs:   I2C_Read
                                                   I2C_Write
           ENTRY                   ADDRESS         REF BY
           =====                   =======         ======
           I2C_SetSpeed            00007D4E 
               CSTACK = 00000000 ( 0000000E )
    -------------------------------------------------------------------------
CODE
  Relative segment, address: 00007D8E - 00007DE3 (0x56 bytes), align: 0
  Segment part 27.
           ENTRY                   ADDRESS         REF BY
           =====                   =======         ======
           I2C_Start               00007D8E        EEPROM_Erase (EEPROM)
                                                   EEPROM_Read (EEPROM)
                                                   EEPROM_Write (EEPROM)
                                                   Temperature_Init (Temperature)
    -------------------------------------------------------------------------
CODE
  Relative segment, address: 00007DE4 - 00007E6F (0x8c bytes), align: 0
  Segment part 29.
           ENTRY                   ADDRESS         REF BY
           =====                   =======         ======
           I2C_Write               00007DE4        EEPROM_Erase (EEPROM)
                                                   EEPROM_Read (EEPROM)
                                                   EEPROM_Write (EEPROM)
                                                   Temperature_Init (Temperature)
               calls direct
               CSTACK = 00000000 ( 00000004 )
    -------------------------------------------------------------------------
CODE
  Relative segment, address: 00007E70 - 00007EF9 (0x8a bytes), align: 0
  Segment part 30.
           ENTRY                   ADDRESS         REF BY
           =====                   =======         ======
           I2C_Read                00007E70        EEPROM_Read (EEPROM)
               calls direct
               CSTACK = 00000000 ( 00000004 )
    -------------------------------------------------------------------------
CODE
  Relative segment, address: 00007EFA - 00007F03 (0xa bytes), align: 0
  Segment part 31.
           ENTRY                   ADDRESS         REF BY
           =====                   =======         ======
           I2C_IsBusy              00007EFA        EEPROM_Erase (EEPROM)
                                                   EEPROM_Read (EEPROM)
                                                   EEPROM_Write (EEPROM)
                                                   Temperature_Init (Temperature)
    -------------------------------------------------------------------------
CODE
  Relative segment, address: 00007F04 - 00007F19 (0x16 bytes), align: 0
  Segment part 32.            Intra module refs:   I2C_InterruptHandler::??INTVEC 42
           LOCAL                   ADDRESS         
           =====                   =======         
           I2C_InterruptHandler    00007F04 
               interrupt function
               calls direct
               CSTACK = 00000000 ( 00000006 )
    -------------------------------------------------------------------------
CODE
  Relative segment, address: 00007F1A - 00008036 (0x11d bytes), align: 0
  Segment part 33.            Intra module refs:   I2C_InterruptHandler
           LOCAL                   ADDRESS         
           =====                   =======         
           I2C_MasterHandler       00007F1A 
               calls indirect
    -------------------------------------------------------------------------
INTVEC
  Common segment, address: 00000000 - 0000002B (0x2c bytes), align: 1
  Segment part 16. ROOT 
           LOCAL                   ADDRESS         
           =====                   =======         
           I2C_InterruptHandler::??INTVEC 42
                                   0000002A 

    *************************************************************************

  FILE NAME : C:\Users\Steve\Dropbox\Kiln\CustomerProjects\RenesasDemo\Factory_Demo_Whisker\YRDKRL78G14\Debug\Obj\jsmn.r87
    *************************************************************************

  FILE NAME : C:\Users\Steve\Dropbox\Kiln\CustomerProjects\RenesasDemo\Factory_Demo_Whisker\YRDKRL78G14\Debug\Obj\lcd.r87
  PROGRAM MODULE, NAME : lcd

  SEGMENTS IN THE MODULE
  ======================
NEAR_Z
  Relative segment, address: 000FABBE - 000FABBF (0x2 bytes), align: 1
  Segment part 2.             Intra module refs:   DisplayLCD
                                                   InitialiseLCD
                                                   LCDSelectFont
           ENTRY                   ADDRESS         REF BY
           =====                   =======         ======
           G_lcd                   000FABBE 
    -------------------------------------------------------------------------
NEAR_I
  Relative segment, address: 000FA042 - 000FA042 (0x1 bytes), align: 0
  Segment part 3.             Intra module refs:   LCDSelectFont
           ENTRY                   ADDRESS         REF BY
           =====                   =======         ======
           G_CharWidth             000FA042 
    -------------------------------------------------------------------------
CODE
  Relative segment, address: 00008037 - 00008059 (0x23 bytes), align: 0
  Segment part 5.
           ENTRY                   ADDRESS         REF BY
           =====                   =======         ======
           InitialiseLCD           00008037        main (main)
               calls direct
               CSTACK = 00000000 ( 00000002 )
    -------------------------------------------------------------------------
CODE
  Relative segment, address: 0000805A - 000080C3 (0x6a bytes), align: 0
  Segment part 7.
           ENTRY                   ADDRESS         REF BY
           =====                   =======         ======
           DisplayLCD              0000805A        App_ConnectMqtt (App_WhiskerGW)
                                                   App_InitModule (App_Startup)
                                                   App_StartupLimitedAP (App_Startup)
                                                   App_WebProvisioning_OverAirPush (App_Startup)
                                                   App_WhiskerGW (App_WhiskerGW)
                                                   RSSIReading (App_WhiskerGW)
                                                   WIFI_Associate (App_WhiskerGW)
                                                   WIFI_init (App_WhiskerGW)
                                                   main (main)
               calls direct
               CSTACK = 00000000 ( 0000000E )
    -------------------------------------------------------------------------
CODE
  Relative segment, address: 000080C4 - 000080F9 (0x36 bytes), align: 0
  Segment part 9.
           ENTRY                   ADDRESS         REF BY
           =====                   =======         ======
           LCDSelectFont           000080C4        main (main)
               calls direct
               CSTACK = 00000000 ( 00000002 )
    -------------------------------------------------------------------------
NEAR_ID
  Relative segment, address: 0000B738 - 0000B738 (0x1 bytes), align: 0
  Segment part 4.             Intra module refs:   G_CharWidth

    *************************************************************************

  FILE NAME : C:\Users\Steve\Dropbox\Kiln\CustomerProjects\RenesasDemo\Factory_Demo_Whisker\YRDKRL78G14\Debug\Obj\led.r87
  PROGRAM MODULE, NAME : led

  SEGMENTS IN THE MODULE
  ======================
SADDR_A
  Relative segment, address: 000FFF00 - 000FFF00 (0x1 bytes), align: 0
  Segment part 1. ROOT        Intra module refs:   Create_UART1 (UART)
                                                   PORT0
           ENTRY                   ADDRESS         REF BY
           =====                   =======         ======
           _A_P0                   000FFF00 
           LOCAL                   ADDRESS         
           =====                   =======         
           P0                      000FFF00 
           P0_bit                  000FFF00 
    -------------------------------------------------------------------------
SADDR_A
  Relative segment, address: 000FFF02 - 000FFF02 (0x1 bytes), align: 0
  Segment part 3. ROOT        Intra module refs:   PORT2
           ENTRY                   ADDRESS         REF BY
           =====                   =======         ======
           _A_P2                   000FFF02 
           LOCAL                   ADDRESS         
           =====                   =======         
           P2                      000FFF02 
           P2_bit                  000FFF02 
    -------------------------------------------------------------------------
SADDR_A
  Relative segment, address: 000FFF03 - 000FFF03 (0x1 bytes), align: 0
  Segment part 4. ROOT        Intra module refs:   PORT3
                                                   Segment part 37 (SPI _G14)
           ENTRY                   ADDRESS         REF BY
           =====                   =======         ======
           _A_P3                   000FFF03 
           LOCAL                   ADDRESS         
           =====                   =======         
           P3                      000FFF03 
           P3_bit                  000FFF03 
    -------------------------------------------------------------------------
SADDR_A
  Relative segment, address: 000FFF04 - 000FFF04 (0x1 bytes), align: 0
  Segment part 5. ROOT        Intra module refs:   PORT4
           ENTRY                   ADDRESS         REF BY
           =====                   =======         ======
           _A_P4                   000FFF04 
           LOCAL                   ADDRESS         
           =====                   =======         
           P4                      000FFF04 
           P4_bit                  000FFF04 
    -------------------------------------------------------------------------
SADDR_A
  Relative segment, address: 000FFF05 - 000FFF05 (0x1 bytes), align: 0
  Segment part 6. ROOT        Intra module refs:   Create_UART0 (UART)
                                                   PORT5
                                                   SPI_Init (SPI _G14)
                                                   Segment part 37 (SPI _G14)
           ENTRY                   ADDRESS         REF BY
           =====                   =======         ======
           _A_P5                   000FFF05 
           LOCAL                   ADDRESS         
           =====                   =======         
           P5                      000FFF05 
           P5_bit                  000FFF05 
    -------------------------------------------------------------------------
SADDR_A
  Relative segment, address: 000FFF0A - 000FFF0A (0x1 bytes), align: 0
  Segment part 9. ROOT        Intra module refs:   PORT10
           ENTRY                   ADDRESS         REF BY
           =====                   =======         ======
           _A_P10                  000FFF0A 
           LOCAL                   ADDRESS         
           =====                   =======         
           P10                     000FFF0A 
           P10_bit                 000FFF0A 
    -------------------------------------------------------------------------
SADDR_A
  Relative segment, address: 000FFF0C - 000FFF0C (0x1 bytes), align: 0
  Segment part 10. ROOT       Intra module refs:   PORT12
           ENTRY                   ADDRESS         REF BY
           =====                   =======         ======
           _A_P12                  000FFF0C 
           LOCAL                   ADDRESS         
           =====                   =======         
           P12                     000FFF0C 
           P12_bit                 000FFF0C 
    -------------------------------------------------------------------------
SADDR_A
  Relative segment, address: 000FFF0D - 000FFF0D (0x1 bytes), align: 0
  Segment part 11. ROOT       Intra module refs:   IO_Reset (RDKRL78_spi)
                                                   PORT13
           ENTRY                   ADDRESS         REF BY
           =====                   =======         ======
           _A_P13                  000FFF0D 
           LOCAL                   ADDRESS         
           =====                   =======         
           P13                     000FFF0D 
           P13_bit                 000FFF0D 
    -------------------------------------------------------------------------
NEAR_A
  Relative segment, address: 000FFF20 - 000FFF20 (0x1 bytes), align: 0
  Segment part 14. ROOT       Intra module refs:   Create_UART1 (UART)
                                                   PORT0
           ENTRY                   ADDRESS         REF BY
           =====                   =======         ======
           _A_PM0                  000FFF20 
           LOCAL                   ADDRESS         
           =====                   =======         
           PM0                     000FFF20 
           PM0_bit                 000FFF20 
    -------------------------------------------------------------------------
NEAR_A
  Relative segment, address: 000FFF23 - 000FFF23 (0x1 bytes), align: 0
  Segment part 17. ROOT       Intra module refs:   PORT3
                                                   Segment part 39 (SPI _G14)
           ENTRY                   ADDRESS         REF BY
           =====                   =======         ======
           _A_PM3                  000FFF23 
           LOCAL                   ADDRESS         
           =====                   =======         
           PM3                     000FFF23 
           PM3_bit                 000FFF23 
    -------------------------------------------------------------------------
NEAR_A
  Relative segment, address: 000FFF24 - 000FFF24 (0x1 bytes), align: 0
  Segment part 18. ROOT       Intra module refs:   PORT4
           ENTRY                   ADDRESS         REF BY
           =====                   =======         ======
           _A_PM4                  000FFF24 
           LOCAL                   ADDRESS         
           =====                   =======         
           PM4                     000FFF24 
           PM4_bit                 000FFF24 
    -------------------------------------------------------------------------
NEAR_A
  Relative segment, address: 000FFF25 - 000FFF25 (0x1 bytes), align: 0
  Segment part 19. ROOT       Intra module refs:   Create_UART0 (UART)
                                                   PORT5
                                                   SPI_Init (SPI _G14)
                                                   Segment part 39 (SPI _G14)
           ENTRY                   ADDRESS         REF BY
           =====                   =======         ======
           _A_PM5                  000FFF25 
           LOCAL                   ADDRESS         
           =====                   =======         
           PM5                     000FFF25 
           PM5_bit                 000FFF25 
    -------------------------------------------------------------------------
NEAR_A
  Relative segment, address: 000FFF27 - 000FFF27 (0x1 bytes), align: 0
  Segment part 21. ROOT       Intra module refs:   PORT7
                                                   R_CSI21_Create (r_cg_serial)
                                                   Segment part 39 (SPI _G14)
           ENTRY                   ADDRESS         REF BY
           =====                   =======         ======
           _A_PM7                  000FFF27 
           LOCAL                   ADDRESS         
           =====                   =======         
           PM7                     000FFF27 
           PM7_bit                 000FFF27 
    -------------------------------------------------------------------------
NEAR_A
  Relative segment, address: 000FFF2A - 000FFF2A (0x1 bytes), align: 0
  Segment part 22. ROOT       Intra module refs:   PORT10
           ENTRY                   ADDRESS         REF BY
           =====                   =======         ======
           _A_PM10                 000FFF2A 
           LOCAL                   ADDRESS         
           =====                   =======         
           PM10                    000FFF2A 
           PM10_bit                000FFF2A 
    -------------------------------------------------------------------------
NEAR_A
  Relative segment, address: 000FFF2C - 000FFF2C (0x1 bytes), align: 0
  Segment part 23. ROOT       Intra module refs:   PORT12
           ENTRY                   ADDRESS         REF BY
           =====                   =======         ======
           _A_PM12                 000FFF2C 
           LOCAL                   ADDRESS         
           =====                   =======         
           PM12                    000FFF2C 
           PM12_bit                000FFF2C 
    -------------------------------------------------------------------------
NEAR_I
  Relative segment, address: 000F9F72 - 000F9F7F (0xe bytes), align: 1
  Segment part 27.            Intra module refs:   led_all_off
                                                   led_all_on
                                                   led_init
                                                   led_off
                                                   led_on
           ENTRY                   ADDRESS         REF BY
           =====                   =======         ======
           G_LEDPort               000F9F72 
    -------------------------------------------------------------------------
NEAR_I
  Relative segment, address: 000F9F80 - 000F9F8D (0xe bytes), align: 1
  Segment part 29.            Intra module refs:   led_all_off
                                                   led_all_on
                                                   led_init
                                                   led_off
                                                   led_on
           ENTRY                   ADDRESS         REF BY
           =====                   =======         ======
           G_LEDPin                000F9F80 
    -------------------------------------------------------------------------
NEAR_Z
  Relative segment, address: 000FABC0 - 000FABCD (0xe bytes), align: 1
  Segment part 31.            Intra module refs:   led_all_off
                                                   led_all_on
                                                   led_off
                                                   led_on
           ENTRY                   ADDRESS         REF BY
           =====                   =======         ======
           G_LEDStatus             000FABC0 
    -------------------------------------------------------------------------
NEAR_CONST
  Relative segment, address: 000F3866 - 000F3869 (0x4 bytes), align: 1
  Segment part 36.            Intra module refs:   Segment part 50
           ENTRY                   ADDRESS         REF BY
           =====                   =======         ======
           PORT0                   000F3866 
    -------------------------------------------------------------------------
NEAR_CONST
  Relative segment, address: 000F386A - 000F386D (0x4 bytes), align: 1
  Segment part 37.            Intra module refs:   Segment part 50
           ENTRY                   ADDRESS         REF BY
           =====                   =======         ======
           PORT1                   000F386A 
    -------------------------------------------------------------------------
NEAR_CONST
  Relative segment, address: 000F386E - 000F3871 (0x4 bytes), align: 1
  Segment part 38.            Intra module refs:   Segment part 50
           ENTRY                   ADDRESS         REF BY
           =====                   =======         ======
           PORT2                   000F386E 
    -------------------------------------------------------------------------
NEAR_CONST
  Relative segment, address: 000F3872 - 000F3875 (0x4 bytes), align: 1
  Segment part 39.            Intra module refs:   Segment part 50
           ENTRY                   ADDRESS         REF BY
           =====                   =======         ======
           PORT3                   000F3872 
    -------------------------------------------------------------------------
NEAR_CONST
  Relative segment, address: 000F3876 - 000F3879 (0x4 bytes), align: 1
  Segment part 40.            Intra module refs:   Segment part 50
           ENTRY                   ADDRESS         REF BY
           =====                   =======         ======
           PORT4                   000F3876 
    -------------------------------------------------------------------------
NEAR_CONST
  Relative segment, address: 000F387A - 000F387D (0x4 bytes), align: 1
  Segment part 41.            Intra module refs:   Segment part 50
           ENTRY                   ADDRESS         REF BY
           =====                   =======         ======
           PORT5                   000F387A 
    -------------------------------------------------------------------------
NEAR_CONST
  Relative segment, address: 000F387E - 000F3881 (0x4 bytes), align: 1
  Segment part 42.            Intra module refs:   Segment part 50
           ENTRY                   ADDRESS         REF BY
           =====                   =======         ======
           PORT6                   000F387E 
    -------------------------------------------------------------------------
NEAR_CONST
  Relative segment, address: 000F3882 - 000F3885 (0x4 bytes), align: 1
  Segment part 43.            Intra module refs:   Segment part 50
           ENTRY                   ADDRESS         REF BY
           =====                   =======         ======
           PORT7                   000F3882 
    -------------------------------------------------------------------------
NEAR_CONST
  Relative segment, address: 000F3886 - 000F3889 (0x4 bytes), align: 1
  Segment part 44.            Intra module refs:   Segment part 50
           ENTRY                   ADDRESS         REF BY
           =====                   =======         ======
           PORT10                  000F3886 
    -------------------------------------------------------------------------
NEAR_CONST
  Relative segment, address: 000F388A - 000F388D (0x4 bytes), align: 1
  Segment part 45.            Intra module refs:   Segment part 50
           ENTRY                   ADDRESS         REF BY
           =====                   =======         ======
           PORT12                  000F388A 
    -------------------------------------------------------------------------
NEAR_CONST
  Relative segment, address: 000F388E - 000F3891 (0x4 bytes), align: 1
  Segment part 46.            Intra module refs:   Segment part 50
           ENTRY                   ADDRESS         REF BY
           =====                   =======         ======
           PORT13                  000F388E 
    -------------------------------------------------------------------------
NEAR_CONST
  Relative segment, address: 000F3892 - 000F3895 (0x4 bytes), align: 1
  Segment part 47.            Intra module refs:   Segment part 50
           ENTRY                   ADDRESS         REF BY
           =====                   =======         ======
           PORT14                  000F3892 
    -------------------------------------------------------------------------
NEAR_CONST
  Relative segment, address: 000F3896 - 000F3899 (0x4 bytes), align: 1
  Segment part 48.            Intra module refs:   Segment part 50
           ENTRY                   ADDRESS         REF BY
           =====                   =======         ======
           PORT15                  000F3896 
    -------------------------------------------------------------------------
NEAR_I
  Relative segment, address: 000F9F8E - 000F9FAD (0x20 bytes), align: 1
  Segment part 49.            Intra module refs:   GPIO_OuputMode
                                                   GPIO_SetHigh
                                                   GPIO_SetLow
           ENTRY                   ADDRESS         REF BY
           =====                   =======         ======
           GPIOTable               000F9F8E 
    -------------------------------------------------------------------------
CODE
  Relative segment, address: 000080FA - 0000812A (0x31 bytes), align: 0
  Segment part 54.            Intra module refs:   led_init
           ENTRY                   ADDRESS         REF BY
           =====                   =======         ======
           GPIO_OuputMode          000080FA 
               CSTACK = 00000000 ( 00000006 )
    -------------------------------------------------------------------------
CODE
  Relative segment, address: 0000812B - 00008156 (0x2c bytes), align: 0
  Segment part 55.            Intra module refs:   led_all_off
                                                   led_off
           ENTRY                   ADDRESS         REF BY
           =====                   =======         ======
           GPIO_SetHigh            0000812B 
               CSTACK = 00000000 ( 00000006 )
    -------------------------------------------------------------------------
CODE
  Relative segment, address: 00008157 - 00008186 (0x30 bytes), align: 0
  Segment part 56.            Intra module refs:   led_all_on
                                                   led_on
           ENTRY                   ADDRESS         REF BY
           =====                   =======         ======
           GPIO_SetLow             00008157 
               CSTACK = 00000000 ( 00000006 )
    -------------------------------------------------------------------------
NEAR_Z
  Relative segment, address: 000FAFED - 000FAFED (0x1 bytes), align: 0
  Segment part 51.
           ENTRY                   ADDRESS         REF BY
           =====                   =======         ======
           gSetLight_onoff         000FAFED        AtLibGs_ReceiveDataProcess (AtCmdLib)
                                                   AtLib_GSLinkGetPostResp (AtCmdLib)
    -------------------------------------------------------------------------
CODE
  Relative segment, address: 00008187 - 000081B2 (0x2c bytes), align: 0
  Segment part 59.
           ENTRY                   ADDRESS         REF BY
           =====                   =======         ======
           led_init                00008187        main (main)
               calls direct
               CSTACK = 00000000 ( 00000004 )
    -------------------------------------------------------------------------
CODE
  Relative segment, address: 000081B3 - 000081E5 (0x33 bytes), align: 0
  Segment part 60.
           ENTRY                   ADDRESS         REF BY
           =====                   =======         ======
           led_all_off             000081B3        App_WhiskerGW (App_WhiskerGW)
               calls direct
               CSTACK = 00000000 ( 00000004 )
    -------------------------------------------------------------------------
CODE
  Relative segment, address: 000081E6 - 00008218 (0x33 bytes), align: 0
  Segment part 61.
           ENTRY                   ADDRESS         REF BY
           =====                   =======         ======
           led_all_on              000081E6        App_WhiskerGW (App_WhiskerGW)
               calls direct
               CSTACK = 00000000 ( 00000004 )
    -------------------------------------------------------------------------
CODE
  Relative segment, address: 00008219 - 0000823D (0x25 bytes), align: 0
  Segment part 62.
           ENTRY                   ADDRESS         REF BY
           =====                   =======         ======
           led_on                  00008219        App_WhiskerGW (App_WhiskerGW)
               calls direct
               CSTACK = 00000000 ( 00000004 )
    -------------------------------------------------------------------------
CODE
  Relative segment, address: 0000823E - 00008262 (0x25 bytes), align: 0
  Segment part 63.
           ENTRY                   ADDRESS         REF BY
           =====                   =======         ======
           led_off                 0000823E        App_WhiskerGW (App_WhiskerGW)
               calls direct
               CSTACK = 00000000 ( 00000004 )
    -------------------------------------------------------------------------
NEAR_ID
  Relative segment, address: 0000B668 - 0000B675 (0xe bytes), align: 1
  Segment part 28.            Intra module refs:   G_LEDPort
    -------------------------------------------------------------------------
NEAR_ID
  Relative segment, address: 0000B676 - 0000B683 (0xe bytes), align: 1
  Segment part 30.            Intra module refs:   G_LEDPin
    -------------------------------------------------------------------------
NEAR_ID
  Relative segment, address: 0000B684 - 0000B6A3 (0x20 bytes), align: 1
  Segment part 50.            Intra module refs:   GPIOTable
    -------------------------------------------------------------------------
NEAR_CONST_ID
  Relative segment, address: 00003866 - 00003869 (0x4 bytes), align: 1
  Segment part 67.            Intra module refs:   PORT0
    -------------------------------------------------------------------------
NEAR_CONST_ID
  Relative segment, address: 0000386A - 0000386D (0x4 bytes), align: 1
  Segment part 68.            Intra module refs:   PORT1
    -------------------------------------------------------------------------
NEAR_CONST_ID
  Relative segment, address: 0000386E - 00003871 (0x4 bytes), align: 1
  Segment part 69.            Intra module refs:   PORT2
    -------------------------------------------------------------------------
NEAR_CONST_ID
  Relative segment, address: 00003872 - 00003875 (0x4 bytes), align: 1
  Segment part 70.            Intra module refs:   PORT3
    -------------------------------------------------------------------------
NEAR_CONST_ID
  Relative segment, address: 00003876 - 00003879 (0x4 bytes), align: 1
  Segment part 71.            Intra module refs:   PORT4
    -------------------------------------------------------------------------
NEAR_CONST_ID
  Relative segment, address: 0000387A - 0000387D (0x4 bytes), align: 1
  Segment part 72.            Intra module refs:   PORT5
    -------------------------------------------------------------------------
NEAR_CONST_ID
  Relative segment, address: 0000387E - 00003881 (0x4 bytes), align: 1
  Segment part 73.            Intra module refs:   PORT6
    -------------------------------------------------------------------------
NEAR_CONST_ID
  Relative segment, address: 00003882 - 00003885 (0x4 bytes), align: 1
  Segment part 74.            Intra module refs:   PORT7
    -------------------------------------------------------------------------
NEAR_CONST_ID
  Relative segment, address: 00003886 - 00003889 (0x4 bytes), align: 1
  Segment part 75.            Intra module refs:   PORT10
    -------------------------------------------------------------------------
NEAR_CONST_ID
  Relative segment, address: 0000388A - 0000388D (0x4 bytes), align: 1
  Segment part 76.            Intra module refs:   PORT12
    -------------------------------------------------------------------------
NEAR_CONST_ID
  Relative segment, address: 0000388E - 00003891 (0x4 bytes), align: 1
  Segment part 77.            Intra module refs:   PORT13
    -------------------------------------------------------------------------
NEAR_CONST_ID
  Relative segment, address: 00003892 - 00003895 (0x4 bytes), align: 1
  Segment part 78.            Intra module refs:   PORT14
    -------------------------------------------------------------------------
NEAR_CONST_ID
  Relative segment, address: 00003896 - 00003899 (0x4 bytes), align: 1
  Segment part 79.            Intra module refs:   PORT15

    *************************************************************************

  FILE NAME : C:\Users\Steve\Dropbox\Kiln\CustomerProjects\RenesasDemo\Factory_Demo_Whisker\YRDKRL78G14\Debug\Obj\lib_ascii.r87
    *************************************************************************

  FILE NAME : C:\Users\Steve\Dropbox\Kiln\CustomerProjects\RenesasDemo\Factory_Demo_Whisker\YRDKRL78G14\Debug\Obj\lib_math.r87
    *************************************************************************

  FILE NAME : C:\Users\Steve\Dropbox\Kiln\CustomerProjects\RenesasDemo\Factory_Demo_Whisker\YRDKRL78G14\Debug\Obj\lib_mem.r87
    *************************************************************************

  FILE NAME : C:\Users\Steve\Dropbox\Kiln\CustomerProjects\RenesasDemo\Factory_Demo_Whisker\YRDKRL78G14\Debug\Obj\lib_str.r87
    *************************************************************************

  FILE NAME : C:\Users\Steve\Dropbox\Kiln\CustomerProjects\RenesasDemo\Factory_Demo_Whisker\YRDKRL78G14\Debug\Obj\LibReplacement.r87
  LIBRARY MODULE, NAME : __HWDIV_8_8_8

  SEGMENTS IN THE MODULE
  ======================
__aseg
  Relative segment, address: 00000000, align: 0
  Segment part 1. ROOT 
    -------------------------------------------------------------------------
RCODE
  Relative segment, address: 000000D8 - 000000E7 (0x10 bytes), align: 1
  Segment part 2. ROOT 
           ENTRY                   ADDRESS         REF BY
           =====                   =======         ======
           HWDIV_8_8_8             000000D8        mqtt_connect (mqtt)
           LOCAL                   ADDRESS         
           =====                   =======         
           LABEL2                  000000E5 

    -------------------------------------------------------------------------
  LIBRARY MODULE, NAME : __HWMOD_8_8_8

  SEGMENTS IN THE MODULE
  ======================
__aseg
  Relative segment, address: 00000000, align: 0
  Segment part 1. ROOT 
    -------------------------------------------------------------------------
RCODE
  Relative segment, address: 000000E8 - 000000F9 (0x12 bytes), align: 1
  Segment part 2. ROOT 
           ENTRY                   ADDRESS         REF BY
           =====                   =======         ======
           HWMOD_8_8_8             000000E8        DisplayLCD (lcd)
                                                   mqtt_connect (mqtt)
           LOCAL                   ADDRESS         
           =====                   =======         
           LABEL2                  000000F7 

    -------------------------------------------------------------------------
  LIBRARY MODULE, NAME : __HWSDIV_16_16_16

  SEGMENTS IN THE MODULE
  ======================
__aseg
  Relative segment, address: 00000000, align: 0
  Segment part 1. ROOT 
    -------------------------------------------------------------------------
RCODE
  Relative segment, address: 000000FA - 0000013C (0x43 bytes), align: 1
  Segment part 2. ROOT 
           ENTRY                   ADDRESS         REF BY
           =====                   =======         ======
           HWSDIV_16_16_16         000000FA        div (?div)
                                                   itoa (AtCmdLib)
           LOCAL                   ADDRESS         
           =====                   =======         
           LABEL1                  0000010F 
           LABEL2                  0000011C 
           LABEL3                  00000136 

    -------------------------------------------------------------------------
  LIBRARY MODULE, NAME : __HWSMOD_16_16_16

  SEGMENTS IN THE MODULE
  ======================
__aseg
  Relative segment, address: 00000000, align: 0
  Segment part 1. ROOT 
    -------------------------------------------------------------------------
RCODE
  Relative segment, address: 0000013E - 0000017E (0x41 bytes), align: 1
  Segment part 2. ROOT 
           ENTRY                   ADDRESS         REF BY
           =====                   =======         ======
           HWSMOD_16_16_16         0000013E        itoa (AtCmdLib)
           LOCAL                   ADDRESS         
           =====                   =======         
           LABEL1                  00000152 
           LABEL2                  0000015F 
           LABEL3                  00000178 

    -------------------------------------------------------------------------
  LIBRARY MODULE, NAME : __HWSDIV_32_32_32

  SEGMENTS IN THE MODULE
  ======================
__aseg
  Relative segment, address: 00000000, align: 0
  Segment part 1. ROOT 
    -------------------------------------------------------------------------
RCODE
  Relative segment, address: 00000180 - 0000022C (0xad bytes), align: 1
  Segment part 2. ROOT 
           ENTRY                   ADDRESS         REF BY
           =====                   =======         ======
           HWSDIV_32_32_32         00000180        _LdtobLarge (?xprintflarge)
           LOCAL                   ADDRESS         
           =====                   =======         
           LABEL1                  00000228 
           LABEL2                  00000229 
           LABEL3                  000001B5 
           LABEL4                  000001E7 
           LABEL5                  00000197 
           LABEL6                  000001AF 
           Label8                  000001FC 

    -------------------------------------------------------------------------
  LIBRARY MODULE, NAME : __HWSMOD_32_32_32

  SEGMENTS IN THE MODULE
  ======================
__aseg
  Relative segment, address: 00000000, align: 0
  Segment part 1. ROOT 
    -------------------------------------------------------------------------
RCODE
  Relative segment, address: 0000022E - 000002E2 (0xb5 bytes), align: 1
  Segment part 2. ROOT 
           ENTRY                   ADDRESS         REF BY
           =====                   =======         ======
           HWSMOD_32_32_32         0000022E 
           LOCAL                   ADDRESS         
           =====                   =======         
           LABEL1                  000002DE 
           LABEL2                  000002DF 
           LABEL3                  00000261 
           LABEL4                  0000029C 
           LABEL5                  00000243 
           LABEL6                  0000025B 
           Label8                  000002B2 

    -------------------------------------------------------------------------
  LIBRARY MODULE, NAME : __HWSxxx_32_32_32

  SEGMENTS IN THE MODULE
  ======================
__aseg
  Relative segment, address: 00000000, align: 0
  Segment part 1. ROOT 
    -------------------------------------------------------------------------
RCODE
  Relative segment, address: 000002E4 - 000002FA (0x17 bytes), align: 1
  Segment part 2. ROOT 
           ENTRY                   ADDRESS         REF BY
           =====                   =======         ======
           CHGSIGN_32              000002E4        HWSDIV_32_32_32 (__HWSDIV_32_32_32)
                                                   HWSMOD_32_32_32 (__HWSMOD_32_32_32)

    *************************************************************************

  FILE NAME : C:\Users\Steve\Dropbox\Kiln\CustomerProjects\RenesasDemo\Factory_Demo_Whisker\YRDKRL78G14\Debug\Obj\LightSensor.r87
    *************************************************************************

  FILE NAME : C:\Users\Steve\Dropbox\Kiln\CustomerProjects\RenesasDemo\Factory_Demo_Whisker\YRDKRL78G14\Debug\Obj\main.r87
  PROGRAM MODULE, NAME : main

  SEGMENTS IN THE MODULE
  ======================
OPTBYTE
  Relative segment, address: 000000C0 - 000000C0 (0x1 bytes), align: 0
  Segment part 6. ROOT 
           ENTRY                   ADDRESS         REF BY
           =====                   =======         ======
           opbyte0                 000000C0 
    -------------------------------------------------------------------------
OPTBYTE
  Relative segment, address: 000000C1 - 000000C1 (0x1 bytes), align: 0
  Segment part 7. ROOT 
           ENTRY                   ADDRESS         REF BY
           =====                   =======         ======
           opbyte1                 000000C1 
    -------------------------------------------------------------------------
OPTBYTE
  Relative segment, address: 000000C2 - 000000C2 (0x1 bytes), align: 0
  Segment part 8. ROOT 
           ENTRY                   ADDRESS         REF BY
           =====                   =======         ======
           opbyte2                 000000C2 
    -------------------------------------------------------------------------
OPTBYTE
  Relative segment, address: 000000C3 - 000000C3 (0x1 bytes), align: 0
  Segment part 9. ROOT 
           ENTRY                   ADDRESS         REF BY
           =====                   =======         ======
           opbyte3                 000000C3 
    -------------------------------------------------------------------------
SECUID
  Relative segment, address: 000000C4 - 000000CD (0xa bytes), align: 1
  Segment part 10. ROOT 
           ENTRY                   ADDRESS         REF BY
           =====                   =======         ======
           secuid                  000000C4 
    -------------------------------------------------------------------------
NEAR_Z
  Relative segment, address: 000FABCE - 000FABCF (0x2 bytes), align: 1
  Segment part 11.
           ENTRY                   ADDRESS         REF BY
           =====                   =======         ======
           gAmbientLight           000FABCE        AtLib_GSLinkGetPostResp (AtCmdLib)
    -------------------------------------------------------------------------
NEAR_Z
  Relative segment, address: 000FABD0 - 000FABD3 (0x4 bytes), align: 1
  Segment part 12.
           ENTRY                   ADDRESS         REF BY
           =====                   =======         ======
           gTemp_F                 000FABD0        AtLib_GSLinkSendTempValue (AtCmdLib)
    -------------------------------------------------------------------------
CODE
  Relative segment, address: 00008263 - 000082E6 (0x84 bytes), align: 0
  Segment part 13.
           ENTRY                   ADDRESS         REF BY
           =====                   =======         ======
           main                    00008263        Segment part 1 (?__MAIN_CALL)
               calls direct
               CSTACK = 00000000 ( 00000008 )
    -------------------------------------------------------------------------
NEAR_CONST
  Relative segment, address: 000F389A - 000F38A7 (0xe bytes), align: 1
  Segment part 4.             Intra module refs:   main
    -------------------------------------------------------------------------
NEAR_CONST
  Relative segment, address: 000F38A8 - 000F38B3 (0xc bytes), align: 1
  Segment part 5.             Intra module refs:   main
    -------------------------------------------------------------------------
NEAR_CONST_ID
  Relative segment, address: 0000389A - 000038A7 (0xe bytes), align: 1
  Segment part 14.            Intra module refs:   Segment part 4
    -------------------------------------------------------------------------
NEAR_CONST_ID
  Relative segment, address: 000038A8 - 000038B3 (0xc bytes), align: 1
  Segment part 15.            Intra module refs:   Segment part 5

    *************************************************************************

  FILE NAME : C:\Users\Steve\Dropbox\Kiln\CustomerProjects\RenesasDemo\Factory_Demo_Whisker\YRDKRL78G14\Debug\Obj\mqtt.r87
  PROGRAM MODULE, NAME : mqtt

  SEGMENTS IN THE MODULE
  ======================
NEAR_Z
  Relative segment, address: 000FAFEE - 000FAFEE (0x1 bytes), align: 0
  Segment part 20.            Intra module refs:   init_socket
           ENTRY                   ADDRESS         REF BY
           =====                   =======         ======
           cid                     000FAFEE 
    -------------------------------------------------------------------------
NEAR_Z
  Relative segment, address: 000FABD4 - 000FADD3 (0x200 bytes), align: 1
  Segment part 21.            Intra module refs:   mqtt_connect
                                                   mqtt_publish_with_qos
           ENTRY                   ADDRESS         REF BY
           =====                   =======         ======
           packet_buffer           000FABD4 
    -------------------------------------------------------------------------
CODE
  Relative segment, address: 000082E7 - 000082F9 (0x13 bytes), align: 0
  Segment part 24.
           ENTRY                   ADDRESS         REF BY
           =====                   =======         ======
           mqtt_initJsonMsg        000082E7        App_WhiskerGW (App_WhiskerGW)
               calls direct
               CSTACK = 00000000 ( 00000006 )
    -------------------------------------------------------------------------
CODE
  Relative segment, address: 000082FA - 00008315 (0x1c bytes), align: 0
  Segment part 25.
           ENTRY                   ADDRESS         REF BY
           =====                   =======         ======
           mqtt_finishJsonMsg      000082FA        App_WhiskerGW (App_WhiskerGW)
               calls direct
               CSTACK = 00000000 ( 00000006 )
    -------------------------------------------------------------------------
CODE
  Relative segment, address: 00008316 - 00008361 (0x4c bytes), align: 0
  Segment part 26.
           ENTRY                   ADDRESS         REF BY
           =====                   =======         ======
           mqtt_addStringValToMsg
                                   00008316        App_WhiskerGW (App_WhiskerGW)
               calls direct
               CSTACK = 00000002 ( 0000000A )
    -------------------------------------------------------------------------
CODE
  Relative segment, address: 00008362 - 000083B0 (0x4f bytes), align: 0
  Segment part 27.
           ENTRY                   ADDRESS         REF BY
           =====                   =======         ======
           mqtt_addIntValToMsg     00008362        App_WhiskerGW (App_WhiskerGW)
               calls direct
               CSTACK = 00000004 ( 0000000C )
    -------------------------------------------------------------------------
CODE
  Relative segment, address: 000083B1 - 000083D0 (0x20 bytes), align: 0
  Segment part 29.            Intra module refs:   init_socket
           ENTRY                   ADDRESS         REF BY
           =====                   =======         ======
           send_packet             000083B1 
               calls direct
               CSTACK = 00000000 ( 0000000A )
    -------------------------------------------------------------------------
CODE
  Relative segment, address: 000083D1 - 00008457 (0x87 bytes), align: 0
  Segment part 30.            Intra module refs:   mqtt_connect
           ENTRY                   ADDRESS         REF BY
           =====                   =======         ======
           init_socket             000083D1 
               calls direct
               CSTACK = 00000002 ( 00000082 )
    -------------------------------------------------------------------------
NEAR_Z
  Relative segment, address: 000FADD4 - 000FADD9 (0x6 bytes), align: 1
  Segment part 22.            Intra module refs:   mqtt_read_packet
           ENTRY                   ADDRESS         REF BY
           =====                   =======         ======
           rxm                     000FADD4        App_ConnectMqtt (App_WhiskerGW)
                                                   App_WhiskerGW (App_WhiskerGW)
    -------------------------------------------------------------------------
CODE
  Relative segment, address: 00008458 - 00008477 (0x20 bytes), align: 0
  Segment part 32.
           ENTRY                   ADDRESS         REF BY
           =====                   =======         ======
           mqtt_read_packet        00008458        App_ConnectMqtt (App_WhiskerGW)
               calls direct
               CSTACK = 00000000 ( 00000006 )
    -------------------------------------------------------------------------
CODE
  Relative segment, address: 00008478 - 000084E6 (0x6f bytes), align: 0
  Segment part 40.
           ENTRY                   ADDRESS         REF BY
           =====                   =======         ======
           mqtt_init               00008478        App_ConnectMqtt (App_WhiskerGW)
               calls direct
               CSTACK = 00000000 ( 00000008 )
    -------------------------------------------------------------------------
CODE
  Relative segment, address: 000084E7 - 00008524 (0x3e bytes), align: 0
  Segment part 41.
           ENTRY                   ADDRESS         REF BY
           =====                   =======         ======
           mqtt_init_auth          000084E7        App_ConnectMqtt (App_WhiskerGW)
               calls direct
               CSTACK = 00000000 ( 00000006 )
    -------------------------------------------------------------------------
CODE
  Relative segment, address: 00008525 - 0000852A (0x6 bytes), align: 0
  Segment part 42.            Intra module refs:   init_socket
           ENTRY                   ADDRESS         REF BY
           =====                   =======         ======
           mqtt_set_alive          00008525 
    -------------------------------------------------------------------------
CODE
  Relative segment, address: 0000852B - 00008790 (0x266 bytes), align: 0
  Segment part 43.
           ENTRY                   ADDRESS         REF BY
           =====                   =======         ======
           mqtt_connect            0000852B        App_ConnectMqtt (App_WhiskerGW)
               calls direct and indirect
               CSTACK = 00000000 ( 00000028 )
    -------------------------------------------------------------------------
CODE
  Relative segment, address: 00008791 - 000087B2 (0x22 bytes), align: 0
  Segment part 46.
           ENTRY                   ADDRESS         REF BY
           =====                   =======         ======
           mqtt_publish            00008791        App_WhiskerGW (App_WhiskerGW)
               calls direct
               CSTACK = 00000002 ( 0000000C )
    -------------------------------------------------------------------------
CODE
  Relative segment, address: 000087B3 - 00008944 (0x192 bytes), align: 0
  Segment part 47.            Intra module refs:   mqtt_publish
           ENTRY                   ADDRESS         REF BY
           =====                   =======         ======
           mqtt_publish_with_qos   000087B3 
               calls direct and indirect
               CSTACK = 00000006 ( 00000018 )
    -------------------------------------------------------------------------
NEAR_CONST
  Relative segment, address: 000F38B4 - 000F38B7 (0x4 bytes), align: 1
  Segment part 2.             Intra module refs:   mqtt_finishJsonMsg
                                                   mqtt_initJsonMsg
    -------------------------------------------------------------------------
NEAR_CONST
  Relative segment, address: 000F38B8 - 000F38B9 (0x2 bytes), align: 1
  Segment part 3.             Intra module refs:   mqtt_initJsonMsg
    -------------------------------------------------------------------------
NEAR_CONST
  Relative segment, address: 000F38BA - 000F38BB (0x2 bytes), align: 1
  Segment part 4.             Intra module refs:   mqtt_finishJsonMsg
    -------------------------------------------------------------------------
NEAR_CONST
  Relative segment, address: 000F38BC - 000F38BD (0x2 bytes), align: 1
  Segment part 5.             Intra module refs:   mqtt_addIntValToMsg
                                                   mqtt_addStringValToMsg
    -------------------------------------------------------------------------
NEAR_CONST
  Relative segment, address: 000F38BE - 000F38C3 (0x6 bytes), align: 1
  Segment part 6.             Intra module refs:   mqtt_addIntValToMsg
                                                   mqtt_addStringValToMsg
    -------------------------------------------------------------------------
NEAR_CONST
  Relative segment, address: 000F38C4 - 000F38C9 (0x6 bytes), align: 1
  Segment part 7.             Intra module refs:   mqtt_addStringValToMsg
    -------------------------------------------------------------------------
NEAR_CONST
  Relative segment, address: 000F38CA - 000F38CF (0x6 bytes), align: 1
  Segment part 8.             Intra module refs:   mqtt_addIntValToMsg
    -------------------------------------------------------------------------
NEAR_CONST
  Relative segment, address: 000F38D0 - 000F38D3 (0x4 bytes), align: 1
  Segment part 10.            Intra module refs:   init_socket
    -------------------------------------------------------------------------
NEAR_CONST
  Relative segment, address: 000F38D4 - 000F38D9 (0x6 bytes), align: 1
  Segment part 11.            Intra module refs:   init_socket
    -------------------------------------------------------------------------
NEAR_CONST
  Relative segment, address: 000F38DA - 000F38DF (0x6 bytes), align: 1
  Segment part 12.            Intra module refs:   mqtt_init
    -------------------------------------------------------------------------
NEAR_CONST
  Relative segment, address: 000F38E0 - 000F38F1 (0x12 bytes), align: 1
  Segment part 13.            Intra module refs:   mqtt_connect
    -------------------------------------------------------------------------
NEAR_CONST
  Relative segment, address: 000F38F2 - 000F38FD (0xc bytes), align: 1
  Segment part 14.            Intra module refs:   mqtt_connect
    -------------------------------------------------------------------------
NEAR_CONST_ID
  Relative segment, address: 000038B4 - 000038B7 (0x4 bytes), align: 1
  Segment part 51.            Intra module refs:   Segment part 2
    -------------------------------------------------------------------------
NEAR_CONST_ID
  Relative segment, address: 000038B8 - 000038B9 (0x2 bytes), align: 1
  Segment part 52.            Intra module refs:   Segment part 3
    -------------------------------------------------------------------------
NEAR_CONST_ID
  Relative segment, address: 000038BA - 000038BB (0x2 bytes), align: 1
  Segment part 53.            Intra module refs:   Segment part 4
    -------------------------------------------------------------------------
NEAR_CONST_ID
  Relative segment, address: 000038BC - 000038BD (0x2 bytes), align: 1
  Segment part 54.            Intra module refs:   Segment part 5
    -------------------------------------------------------------------------
NEAR_CONST_ID
  Relative segment, address: 000038BE - 000038C3 (0x6 bytes), align: 1
  Segment part 55.            Intra module refs:   Segment part 6
    -------------------------------------------------------------------------
NEAR_CONST_ID
  Relative segment, address: 000038C4 - 000038C9 (0x6 bytes), align: 1
  Segment part 56.            Intra module refs:   Segment part 7
    -------------------------------------------------------------------------
NEAR_CONST_ID
  Relative segment, address: 000038CA - 000038CF (0x6 bytes), align: 1
  Segment part 57.            Intra module refs:   Segment part 8
    -------------------------------------------------------------------------
NEAR_CONST_ID
  Relative segment, address: 000038D0 - 000038D3 (0x4 bytes), align: 1
  Segment part 59.            Intra module refs:   Segment part 10
    -------------------------------------------------------------------------
NEAR_CONST_ID
  Relative segment, address: 000038D4 - 000038D9 (0x6 bytes), align: 1
  Segment part 60.            Intra module refs:   Segment part 11
    -------------------------------------------------------------------------
NEAR_CONST_ID
  Relative segment, address: 000038DA - 000038DF (0x6 bytes), align: 1
  Segment part 61.            Intra module refs:   Segment part 12
    -------------------------------------------------------------------------
NEAR_CONST_ID
  Relative segment, address: 000038E0 - 000038F1 (0x12 bytes), align: 1
  Segment part 62.            Intra module refs:   Segment part 13
    -------------------------------------------------------------------------
NEAR_CONST_ID
  Relative segment, address: 000038F2 - 000038FD (0xc bytes), align: 1
  Segment part 63.            Intra module refs:   Segment part 14

    *************************************************************************

  FILE NAME : C:\Users\Steve\Dropbox\Kiln\CustomerProjects\RenesasDemo\Factory_Demo_Whisker\YRDKRL78G14\Debug\Obj\mstimer.r87
  PROGRAM MODULE, NAME : mstimer

  SEGMENTS IN THE MODULE
  ======================
NEAR_Z
  Relative segment, address: 000FADDA - 000FADDD (0x4 bytes), align: 1
  Segment part 3.             Intra module refs:   MSTimerGet
                                                   MSTimerInit
                                                   _MSTimerISR
           LOCAL                   ADDRESS         
           =====                   =======         
           G_msTimer               000FADDA 
    -------------------------------------------------------------------------
CODE
  Relative segment, address: 00008945 - 00008960 (0x1c bytes), align: 0
  Segment part 4.             Intra module refs:   MSTimerInit
           LOCAL                   ADDRESS         
           =====                   =======         
           _MSTimerISR             00008945 
               CSTACK = 00000000 ( 00000002 )
    -------------------------------------------------------------------------
CODE
  Relative segment, address: 00008961 - 00008979 (0x19 bytes), align: 0
  Segment part 5.
           ENTRY                   ADDRESS         REF BY
           =====                   =======         ======
           MSTimerInit             00008961        main (main)
               calls direct
    -------------------------------------------------------------------------
CODE
  Relative segment, address: 0000897A - 0000898B (0x12 bytes), align: 0
  Segment part 6.             Intra module refs:   MSTimerDelay
                                                   MSTimerDelta
           ENTRY                   ADDRESS         REF BY
           =====                   =======         ======
           MSTimerGet              0000897A        AtLibGs_FlushIncomingMessage (AtCmdLib)
                                                   AtLibGs_GetWebProvSettings (AtCmdLib)
                                                   AtLibGs_ResponseHandle (AtCmdLib)
                                                   AtLibGs_WaitForTCPMessage (AtCmdLib)
                                                   EEPROM_Erase (EEPROM)
                                                   EEPROM_Read (EEPROM)
                                                   EEPROM_Write (EEPROM)
                                                   Temperature_Init (Temperature)
               CSTACK = 00000000 ( 00000002 )
    -------------------------------------------------------------------------
CODE
  Relative segment, address: 0000898C - 000089A7 (0x1c bytes), align: 0
  Segment part 7.             Intra module refs:   MSTimerDelay
           ENTRY                   ADDRESS         REF BY
           =====                   =======         ======
           MSTimerDelta            0000898C        AtLibGs_FlushIncomingMessage (AtCmdLib)
                                                   AtLibGs_GetWebProvSettings (AtCmdLib)
                                                   AtLibGs_ResponseHandle (AtCmdLib)
                                                   AtLibGs_WaitForTCPMessage (AtCmdLib)
                                                   EEPROM_Erase (EEPROM)
                                                   EEPROM_Read (EEPROM)
                                                   EEPROM_Write (EEPROM)
                                                   Temperature_Init (Temperature)
               calls direct
               CSTACK = 00000000 ( 0000000A )
    -------------------------------------------------------------------------
CODE
  Relative segment, address: 000089A8 - 000089DD (0x36 bytes), align: 0
  Segment part 8.
           ENTRY                   ADDRESS         REF BY
           =====                   =======         ======
           MSTimerDelay            000089A8        App_InitModule (App_Startup)
                                                   App_StartupLimitedAP (App_Startup)
                                                   App_WebProvisioning_OverAirPush (App_Startup)
                                                   App_WhiskerGW (App_WhiskerGW)
                                                   EEPROM_Erase (EEPROM)
                                                   EEPROM_Write (EEPROM)
                                                   WIFI_Associate (App_WhiskerGW)
                                                   WIFI_init (App_WhiskerGW)
               calls direct
               CSTACK = 00000000 ( 0000000A )

    *************************************************************************

  FILE NAME : C:\Users\Steve\Dropbox\Kiln\CustomerProjects\RenesasDemo\Factory_Demo_Whisker\YRDKRL78G14\Debug\Obj\NVSettings.r87
  PROGRAM MODULE, NAME : NVSettings

  SEGMENTS IN THE MODULE
  ======================
CODE
  Relative segment, address: 000089DE - 00008A20 (0x43 bytes), align: 0
  Segment part 3.
           ENTRY                   ADDRESS         REF BY
           =====                   =======         ======
           NVSettingsLoad          000089DE        App_WebProvisioning_OverAirPush (App_Startup)
                                                   App_WhiskerGW (App_WhiskerGW)
               calls direct
               CSTACK = 00000000 ( 0000000C )
    -------------------------------------------------------------------------
CODE
  Relative segment, address: 00008A21 - 00008A55 (0x35 bytes), align: 0
  Segment part 4.
           ENTRY                   ADDRESS         REF BY
           =====                   =======         ======
           NVSettingsSave          00008A21        App_WebProvisioning_OverAirPush (App_Startup)
               calls direct
               CSTACK = 00000000 ( 00000008 )
    -------------------------------------------------------------------------
CODE
  Relative segment, address: 00008A56 - 00008A9D (0x48 bytes), align: 0
  Segment part 5.             Intra module refs:   NVSettingsLoad
           ENTRY                   ADDRESS         REF BY
           =====                   =======         ======
           NVSettingsInit          00008A56 
               calls direct
               CSTACK = 00000000 ( 00000008 )
    -------------------------------------------------------------------------
CODE
  Relative segment, address: 00008A9E - 00008AFE (0x61 bytes), align: 0
  Segment part 6.             Intra module refs:   NVSettingsLoad
                                                   NVSettingsSave
           ENTRY                   ADDRESS         REF BY
           =====                   =======         ======
           NVSettingsChecksum      00008A9E 
               CSTACK = 00000000 ( 0000000E )
    -------------------------------------------------------------------------
NEAR_CONST
  Relative segment, address: 000F38FE - 000F3903 (0x6 bytes), align: 1
  Segment part 2.             Intra module refs:   NVSettingsInit
    -------------------------------------------------------------------------
NEAR_CONST_ID
  Relative segment, address: 000038FE - 00003903 (0x6 bytes), align: 1
  Segment part 7.             Intra module refs:   Segment part 2

    *************************************************************************

  FILE NAME : C:\Users\Steve\Dropbox\Kiln\CustomerProjects\RenesasDemo\Factory_Demo_Whisker\YRDKRL78G14\Debug\Obj\Potentiometer.r87
  PROGRAM MODULE, NAME : Potentiometer

  SEGMENTS IN THE MODULE
  ======================
CODE
  Relative segment, address: 00008AFF - 00008B0C (0xe bytes), align: 0
  Segment part 2.
           ENTRY                   ADDRESS         REF BY
           =====                   =======         ======
           Potentiometer_Init      00008AFF        main (main)
               calls direct

    *************************************************************************

  FILE NAME : C:\Users\Steve\Dropbox\Kiln\CustomerProjects\RenesasDemo\Factory_Demo_Whisker\YRDKRL78G14\Debug\Obj\probe_com.r87
    *************************************************************************

  FILE NAME : C:\Users\Steve\Dropbox\Kiln\CustomerProjects\RenesasDemo\Factory_Demo_Whisker\YRDKRL78G14\Debug\Obj\probe_com_os.r87
    *************************************************************************

  FILE NAME : C:\Users\Steve\Dropbox\Kiln\CustomerProjects\RenesasDemo\Factory_Demo_Whisker\YRDKRL78G14\Debug\Obj\probe_wifi.r87
    *************************************************************************

  FILE NAME : C:\Users\Steve\Dropbox\Kiln\CustomerProjects\RenesasDemo\Factory_Demo_Whisker\YRDKRL78G14\Debug\Obj\probe_wifi_os.r87
    *************************************************************************

  FILE NAME : C:\Users\Steve\Dropbox\Kiln\CustomerProjects\RenesasDemo\Factory_Demo_Whisker\YRDKRL78G14\Debug\Obj\r_cg_serial.r87
  PROGRAM MODULE, NAME : r_cg_serial

  SEGMENTS IN THE MODULE
  ======================
SADDR_A
  Relative segment, address: 000FFF10 - 000FFF11 (0x2 bytes), align: 0
  Segment part 6. ROOT        Intra module refs:   UART0_SetBaudRate (UART)
                                                   UART0_TX_ISRHandler (UART)
           ENTRY                   ADDRESS         REF BY
           =====                   =======         ======
           _A_SDR00                000FFF10 
           LOCAL                   ADDRESS         
           =====                   =======         
           SDR00                   000FFF10 
           SDR00_bit               000FFF10 
           SIO00                   000FFF10 
           SIO00_bit               000FFF10 
           TXD0                    000FFF10 
           TXD0_bit                000FFF10 
    -------------------------------------------------------------------------
SADDR_A
  Relative segment, address: 000FFF12 - 000FFF13 (0x2 bytes), align: 0
  Segment part 7. ROOT        Intra module refs:   UART0_RX_ISRHandler (UART)
                                                   UART0_SetBaudRate (UART)
           ENTRY                   ADDRESS         REF BY
           =====                   =======         ======
           _A_SDR01                000FFF12 
           LOCAL                   ADDRESS         
           =====                   =======         
           RXD0                    000FFF12 
           RXD0_bit                000FFF12 
           SDR01                   000FFF12 
           SDR01_bit               000FFF12 
           SIO01                   000FFF12 
           SIO01_bit               000FFF12 
    -------------------------------------------------------------------------
SADDR_A
  Relative segment, address: 000FFF16 - 000FFF17 (0x2 bytes), align: 0
  Segment part 8. ROOT        Intra module refs:   SPI_ISRHandler (SPI _G14)
                                                   SPI_SetBitRate (SPI _G14)
                                                   SPI_Transfer (SPI _G14)
           ENTRY                   ADDRESS         REF BY
           =====                   =======         ======
           _A_SDR13                000FFF16 
           LOCAL                   ADDRESS         
           =====                   =======         
           RXD3                    000FFF16 
           RXD3_bit                000FFF16 
           SDR13                   000FFF16 
           SDR13_bit               000FFF16 
           SIO31                   000FFF16 
           SIO31_bit               000FFF16 
    -------------------------------------------------------------------------
NEAR_A
  Relative segment, address: 000FFF44 - 000FFF45 (0x2 bytes), align: 0
  Segment part 14. ROOT       Intra module refs:   Create_UART1 (UART)
                                                   UART1_SetBaudRate (UART)
                                                   UART1_TX_ISRHandler (UART)
           ENTRY                   ADDRESS         REF BY
           =====                   =======         ======
           _A_SDR02                000FFF44 
           LOCAL                   ADDRESS         
           =====                   =======         
           SDR02                   000FFF44 
           SDR02_bit               000FFF44 
           SIO10                   000FFF44 
           SIO10_bit               000FFF44 
           TXD1                    000FFF44 
           TXD1_bit                000FFF44 
    -------------------------------------------------------------------------
NEAR_A
  Relative segment, address: 000FFF46 - 000FFF47 (0x2 bytes), align: 0
  Segment part 15. ROOT       Intra module refs:   Create_UART1 (UART)
                                                   UART1_RX_ISRHandler (UART)
                                                   UART1_SetBaudRate (UART)
           ENTRY                   ADDRESS         REF BY
           =====                   =======         ======
           _A_SDR03                000FFF46 
           LOCAL                   ADDRESS         
           =====                   =======         
           RXD1                    000FFF46 
           RXD1_bit                000FFF46 
           SDR03                   000FFF46 
           SDR03_bit               000FFF46 
           SIO11                   000FFF46 
           SIO11_bit               000FFF46 
    -------------------------------------------------------------------------
NEAR_A
  Relative segment, address: 000FFF48 - 000FFF49 (0x2 bytes), align: 0
  Segment part 16. ROOT 
           ENTRY                   ADDRESS         REF BY
           =====                   =======         ======
           _A_SDR10                000FFF48 
           LOCAL                   ADDRESS         
           =====                   =======         
           SDR10                   000FFF48 
           SDR10_bit               000FFF48 
           SIO20                   000FFF48 
           SIO20_bit               000FFF48 
           TXD2                    000FFF48 
           TXD2_bit                000FFF48 
    -------------------------------------------------------------------------
NEAR_A
  Relative segment, address: 000FFF4A - 000FFF4B (0x2 bytes), align: 0
  Segment part 17. ROOT       Intra module refs:   R_CSI21_Create
                                                   R_CSI21_Send_Receive
                                                   r_csi21_interrupt (r_cg_serial_user)
           ENTRY                   ADDRESS         REF BY
           =====                   =======         ======
           _A_SDR11                000FFF4A 
           LOCAL                   ADDRESS         
           =====                   =======         
           RXD2                    000FFF4A 
           RXD2_bit                000FFF4A 
           SDR11                   000FFF4A 
           SDR11_bit               000FFF4A 
           SIO21                   000FFF4A 
           SIO21_bit               000FFF4A 
    -------------------------------------------------------------------------
NEAR_A
  Relative segment, address: 000FFFE0 - 000FFFE1 (0x2 bytes), align: 0
  Segment part 20. ROOT       Intra module refs:   Create_UART0 (UART)
                                                   R_CSI21_Create
                                                   R_CSI21_Start
                                                   UART0_RXError_ISRHandler (UART)
                                                   UART0_RX_ISRHandler (UART)
                                                   UART0_TX_ISRHandler (UART)
           ENTRY                   ADDRESS         REF BY
           =====                   =======         ======
           _A_IF0                  000FFFE0 
           LOCAL                   ADDRESS         
           =====                   =======         
           IF0                     000FFFE0 
           IF0H                    000FFFE1 
           IF0H_bit                000FFFE1 
           IF0L                    000FFFE0 
           IF0L_bit                000FFFE0 
    -------------------------------------------------------------------------
NEAR_A
  Relative segment, address: 000FFFE4 - 000FFFE5 (0x2 bytes), align: 0
  Segment part 22. ROOT       Intra module refs:   Create_UART0 (UART)
                                                   R_CSI21_Create
                                                   R_CSI21_Send_Receive
                                                   R_CSI21_Start
           ENTRY                   ADDRESS         REF BY
           =====                   =======         ======
           _A_MK0                  000FFFE4 
           LOCAL                   ADDRESS         
           =====                   =======         
           MK0                     000FFFE4 
           MK0H                    000FFFE5 
           MK0H_bit                000FFFE5 
           MK0L                    000FFFE4 
           MK0L_bit                000FFFE4 
    -------------------------------------------------------------------------
NEAR_A
  Relative segment, address: 000FFFE8 - 000FFFE9 (0x2 bytes), align: 0
  Segment part 24. ROOT       Intra module refs:   Create_UART0 (UART)
                                                   R_CSI21_Create
           ENTRY                   ADDRESS         REF BY
           =====                   =======         ======
           _A_PR00                 000FFFE8 
           LOCAL                   ADDRESS         
           =====                   =======         
           PR00                    000FFFE8 
           PR00H                   000FFFE9 
           PR00H_bit               000FFFE9 
           PR00L                   000FFFE8 
           PR00L_bit               000FFFE8 
    -------------------------------------------------------------------------
NEAR_A
  Relative segment, address: 000FFFEC - 000FFFED (0x2 bytes), align: 0
  Segment part 26. ROOT       Intra module refs:   Create_UART0 (UART)
                                                   R_CSI21_Create
           ENTRY                   ADDRESS         REF BY
           =====                   =======         ======
           _A_PR10                 000FFFEC 
           LOCAL                   ADDRESS         
           =====                   =======         
           PR10                    000FFFEC 
           PR10H                   000FFFED 
           PR10H_bit               000FFFED 
           PR10L                   000FFFEC 
           PR10L_bit               000FFFEC 
    -------------------------------------------------------------------------
NEAR_A
  Relative segment, address: 000F0060 - 000F0060 (0x1 bytes), align: 0
  Segment part 28. ROOT       Intra module refs:   Create_UART1 (UART)
           ENTRY                   ADDRESS         REF BY
           =====                   =======         ======
           _A_PMC0                 000F0060 
           LOCAL                   ADDRESS         
           =====                   =======         
           PMC0                    000F0060 
           PMC0_bit                000F0060 
    -------------------------------------------------------------------------
NEAR_A
  Relative segment, address: 000F0070 - 000F0070 (0x1 bytes), align: 0
  Segment part 29. ROOT       Intra module refs:   Create_UART0 (UART)
                                                   Create_UART1 (UART)
           ENTRY                   ADDRESS         REF BY
           =====                   =======         ======
           _A_NFEN0                000F0070 
           LOCAL                   ADDRESS         
           =====                   =======         
           NFEN0                   000F0070 
           NFEN0_bit               000F0070 
    -------------------------------------------------------------------------
NEAR_A
  Relative segment, address: 000F010A - 000F010B (0x2 bytes), align: 0
  Segment part 31. ROOT       Intra module refs:   Create_UART0 (UART)
                                                   UART0_RXError_ISRHandler (UART)
           ENTRY                   ADDRESS         REF BY
           =====                   =======         ======
           _A_SIR01                000F010A 
           LOCAL                   ADDRESS         
           =====                   =======         
           SIR01                   000F010A 
           SIR01L                  000F010A 
           SIR01L_bit              000F010A 
           SIR01_bit               000F010A 
    -------------------------------------------------------------------------
NEAR_A
  Relative segment, address: 000F010E - 000F010F (0x2 bytes), align: 0
  Segment part 32. ROOT       Intra module refs:   Create_UART1 (UART)
                                                   UART1_RXError_ISRHandler (UART)
           ENTRY                   ADDRESS         REF BY
           =====                   =======         ======
           _A_SIR03                000F010E 
           LOCAL                   ADDRESS         
           =====                   =======         
           SIR03                   000F010E 
           SIR03L                  000F010E 
           SIR03L_bit              000F010E 
           SIR03_bit               000F010E 
    -------------------------------------------------------------------------
NEAR_A
  Relative segment, address: 000F0110 - 000F0111 (0x2 bytes), align: 0
  Segment part 33. ROOT       Intra module refs:   Create_UART0 (UART)
           ENTRY                   ADDRESS         REF BY
           =====                   =======         ======
           _A_SMR00                000F0110 
           LOCAL                   ADDRESS         
           =====                   =======         
           SMR00                   000F0110 
           SMR00_bit               000F0110 
    -------------------------------------------------------------------------
NEAR_A
  Relative segment, address: 000F0112 - 000F0113 (0x2 bytes), align: 0
  Segment part 34. ROOT       Intra module refs:   Create_UART0 (UART)
           ENTRY                   ADDRESS         REF BY
           =====                   =======         ======
           _A_SMR01                000F0112 
           LOCAL                   ADDRESS         
           =====                   =======         
           SMR01                   000F0112 
           SMR01_bit               000F0112 
    -------------------------------------------------------------------------
NEAR_A
  Relative segment, address: 000F0114 - 000F0115 (0x2 bytes), align: 0
  Segment part 35. ROOT       Intra module refs:   Create_UART1 (UART)
           ENTRY                   ADDRESS         REF BY
           =====                   =======         ======
           _A_SMR02                000F0114 
           LOCAL                   ADDRESS         
           =====                   =======         
           SMR02                   000F0114 
           SMR02_bit               000F0114 
    -------------------------------------------------------------------------
NEAR_A
  Relative segment, address: 000F0116 - 000F0117 (0x2 bytes), align: 0
  Segment part 36. ROOT       Intra module refs:   Create_UART1 (UART)
           ENTRY                   ADDRESS         REF BY
           =====                   =======         ======
           _A_SMR03                000F0116 
           LOCAL                   ADDRESS         
           =====                   =======         
           SMR03                   000F0116 
           SMR03_bit               000F0116 
    -------------------------------------------------------------------------
NEAR_A
  Relative segment, address: 000F0118 - 000F0119 (0x2 bytes), align: 0
  Segment part 37. ROOT       Intra module refs:   Create_UART0 (UART)
           ENTRY                   ADDRESS         REF BY
           =====                   =======         ======
           _A_SCR00                000F0118 
           LOCAL                   ADDRESS         
           =====                   =======         
           SCR00                   000F0118 
           SCR00_bit               000F0118 
    -------------------------------------------------------------------------
NEAR_A
  Relative segment, address: 000F011A - 000F011B (0x2 bytes), align: 0
  Segment part 38. ROOT       Intra module refs:   Create_UART0 (UART)
           ENTRY                   ADDRESS         REF BY
           =====                   =======         ======
           _A_SCR01                000F011A 
           LOCAL                   ADDRESS         
           =====                   =======         
           SCR01                   000F011A 
           SCR01_bit               000F011A 
    -------------------------------------------------------------------------
NEAR_A
  Relative segment, address: 000F011C - 000F011D (0x2 bytes), align: 0
  Segment part 39. ROOT       Intra module refs:   Create_UART1 (UART)
           ENTRY                   ADDRESS         REF BY
           =====                   =======         ======
           _A_SCR02                000F011C 
           LOCAL                   ADDRESS         
           =====                   =======         
           SCR02                   000F011C 
           SCR02_bit               000F011C 
    -------------------------------------------------------------------------
NEAR_A
  Relative segment, address: 000F011E - 000F011F (0x2 bytes), align: 0
  Segment part 40. ROOT       Intra module refs:   Create_UART1 (UART)
           ENTRY                   ADDRESS         REF BY
           =====                   =======         ======
           _A_SCR03                000F011E 
           LOCAL                   ADDRESS         
           =====                   =======         
           SCR03                   000F011E 
           SCR03_bit               000F011E 
    -------------------------------------------------------------------------
NEAR_A
  Relative segment, address: 000F0122 - 000F0123 (0x2 bytes), align: 0
  Segment part 41. ROOT       Intra module refs:   Create_UART0 (UART)
                                                   Create_UART1 (UART)
           ENTRY                   ADDRESS         REF BY
           =====                   =======         ======
           _A_SS0                  000F0122 
           LOCAL                   ADDRESS         
           =====                   =======         
           SS0                     000F0122 
           SS0L                    000F0122 
           SS0L_bit                000F0122 
    -------------------------------------------------------------------------
NEAR_A
  Relative segment, address: 000F0124 - 000F0125 (0x2 bytes), align: 0
  Segment part 42. ROOT       Intra module refs:   Create_UART0 (UART)
                                                   Create_UART1 (UART)
           ENTRY                   ADDRESS         REF BY
           =====                   =======         ======
           _A_ST0                  000F0124 
           LOCAL                   ADDRESS         
           =====                   =======         
           ST0                     000F0124 
           ST0L                    000F0124 
           ST0L_bit                000F0124 
    -------------------------------------------------------------------------
NEAR_A
  Relative segment, address: 000F0126 - 000F0127 (0x2 bytes), align: 0
  Segment part 43. ROOT       Intra module refs:   RL78G14RDK_UART_Start (UART)
                                                   UART0_SetBaudRate (UART)
                                                   UART1_SetBaudRate (UART)
           ENTRY                   ADDRESS         REF BY
           =====                   =======         ======
           _A_SPS0                 000F0126 
           LOCAL                   ADDRESS         
           =====                   =======         
           SPS0                    000F0126 
           SPS0L                   000F0126 
           SPS0L_bit               000F0126 
           SPS0_bit                000F0126 
    -------------------------------------------------------------------------
NEAR_A
  Relative segment, address: 000F0128 - 000F0129 (0x2 bytes), align: 0
  Segment part 44. ROOT       Intra module refs:   Create_UART0 (UART)
                                                   Create_UART1 (UART)
           ENTRY                   ADDRESS         REF BY
           =====                   =======         ======
           _A_SO0                  000F0128 
           LOCAL                   ADDRESS         
           =====                   =======         
           SO0                     000F0128 
           SO0_bit                 000F0128 
    -------------------------------------------------------------------------
NEAR_A
  Relative segment, address: 000F012A - 000F012B (0x2 bytes), align: 0
  Segment part 45. ROOT       Intra module refs:   Create_UART0 (UART)
                                                   Create_UART1 (UART)
           ENTRY                   ADDRESS         REF BY
           =====                   =======         ======
           _A_SOE0                 000F012A 
           LOCAL                   ADDRESS         
           =====                   =======         
           SOE0                    000F012A 
           SOE0L                   000F012A 
           SOE0L_bit               000F012A 
    -------------------------------------------------------------------------
NEAR_A
  Relative segment, address: 000F0134 - 000F0135 (0x2 bytes), align: 0
  Segment part 46. ROOT       Intra module refs:   Create_UART0 (UART)
                                                   Create_UART1 (UART)
           ENTRY                   ADDRESS         REF BY
           =====                   =======         ======
           _A_SOL0                 000F0134 
           LOCAL                   ADDRESS         
           =====                   =======         
           SOL0                    000F0134 
           SOL0L                   000F0134 
           SOL0L_bit               000F0134 
           SOL0_bit                000F0134 
    -------------------------------------------------------------------------
NEAR_A
  Relative segment, address: 000F0148 - 000F0149 (0x2 bytes), align: 0
  Segment part 47. ROOT 
           ENTRY                   ADDRESS         REF BY
           =====                   =======         ======
           _A_SIR10                000F0148 
           LOCAL                   ADDRESS         
           =====                   =======         
           SIR10                   000F0148 
           SIR10L                  000F0148 
           SIR10L_bit              000F0148 
           SIR10_bit               000F0148 
    -------------------------------------------------------------------------
NEAR_A
  Relative segment, address: 000F014A - 000F014B (0x2 bytes), align: 0
  Segment part 48. ROOT       Intra module refs:   R_CSI21_Create
                                                   r_csi21_interrupt (r_cg_serial_user)
           ENTRY                   ADDRESS         REF BY
           =====                   =======         ======
           _A_SIR11                000F014A 
           LOCAL                   ADDRESS         
           =====                   =======         
           SIR11                   000F014A 
           SIR11L                  000F014A 
           SIR11L_bit              000F014A 
           SIR11_bit               000F014A 
    -------------------------------------------------------------------------
NEAR_A
  Relative segment, address: 000F014E - 000F014F (0x2 bytes), align: 0
  Segment part 49. ROOT       Intra module refs:   SPI_ISRHandler (SPI _G14)
                                                   SPI_Init (SPI _G14)
           ENTRY                   ADDRESS         REF BY
           =====                   =======         ======
           _A_SIR13                000F014E 
           LOCAL                   ADDRESS         
           =====                   =======         
           SIR13                   000F014E 
           SIR13L                  000F014E 
           SIR13L_bit              000F014E 
           SIR13_bit               000F014E 
    -------------------------------------------------------------------------
NEAR_A
  Relative segment, address: 000F0150 - 000F0151 (0x2 bytes), align: 0
  Segment part 50. ROOT 
           ENTRY                   ADDRESS         REF BY
           =====                   =======         ======
           _A_SMR10                000F0150 
           LOCAL                   ADDRESS         
           =====                   =======         
           SMR10                   000F0150 
           SMR10_bit               000F0150 
    -------------------------------------------------------------------------
NEAR_A
  Relative segment, address: 000F0152 - 000F0153 (0x2 bytes), align: 0
  Segment part 51. ROOT       Intra module refs:   R_CSI21_Create
           ENTRY                   ADDRESS         REF BY
           =====                   =======         ======
           _A_SMR11                000F0152 
           LOCAL                   ADDRESS         
           =====                   =======         
           SMR11                   000F0152 
           SMR11_bit               000F0152 
    -------------------------------------------------------------------------
NEAR_A
  Relative segment, address: 000F0156 - 000F0157 (0x2 bytes), align: 0
  Segment part 52. ROOT       Intra module refs:   SPI_Init (SPI _G14)
           ENTRY                   ADDRESS         REF BY
           =====                   =======         ======
           _A_SMR13                000F0156 
           LOCAL                   ADDRESS         
           =====                   =======         
           SMR13                   000F0156 
           SMR13_bit               000F0156 
    -------------------------------------------------------------------------
NEAR_A
  Relative segment, address: 000F0158 - 000F0159 (0x2 bytes), align: 0
  Segment part 53. ROOT 
           ENTRY                   ADDRESS         REF BY
           =====                   =======         ======
           _A_SCR10                000F0158 
           LOCAL                   ADDRESS         
           =====                   =======         
           SCR10                   000F0158 
           SCR10_bit               000F0158 
    -------------------------------------------------------------------------
NEAR_A
  Relative segment, address: 000F015A - 000F015B (0x2 bytes), align: 0
  Segment part 54. ROOT       Intra module refs:   R_CSI21_Create
                                                   read (xr20m1170)
                                                   write (xr20m1170)
           ENTRY                   ADDRESS         REF BY
           =====                   =======         ======
           _A_SCR11                000F015A 
           LOCAL                   ADDRESS         
           =====                   =======         
           SCR11                   000F015A 
           SCR11_bit               000F015A 
    -------------------------------------------------------------------------
NEAR_A
  Relative segment, address: 000F015E - 000F015F (0x2 bytes), align: 0
  Segment part 55. ROOT       Intra module refs:   SPI_Init (SPI _G14)
           ENTRY                   ADDRESS         REF BY
           =====                   =======         ======
           _A_SCR13                000F015E 
           LOCAL                   ADDRESS         
           =====                   =======         
           SCR13                   000F015E 
           SCR13_bit               000F015E 
    -------------------------------------------------------------------------
NEAR_A
  Relative segment, address: 000F0162 - 000F0163 (0x2 bytes), align: 0
  Segment part 56. ROOT       Intra module refs:   R_CSI21_Start
                                                   SPI_Init (SPI _G14)
                                                   read (xr20m1170)
                                                   write (xr20m1170)
           ENTRY                   ADDRESS         REF BY
           =====                   =======         ======
           _A_SS1                  000F0162 
           LOCAL                   ADDRESS         
           =====                   =======         
           SS1                     000F0162 
           SS1L                    000F0162 
           SS1L_bit                000F0162 
    -------------------------------------------------------------------------
NEAR_A
  Relative segment, address: 000F0164 - 000F0165 (0x2 bytes), align: 0
  Segment part 57. ROOT       Intra module refs:   R_CSI21_Create
                                                   SPI_Init (SPI _G14)
                                                   read (xr20m1170)
                                                   write (xr20m1170)
           ENTRY                   ADDRESS         REF BY
           =====                   =======         ======
           _A_ST1                  000F0164 
           LOCAL                   ADDRESS         
           =====                   =======         
           ST1                     000F0164 
           ST1L                    000F0164 
           ST1L_bit                000F0164 
    -------------------------------------------------------------------------
NEAR_A
  Relative segment, address: 000F0168 - 000F0169 (0x2 bytes), align: 0
  Segment part 58. ROOT       Intra module refs:   R_CSI21_Create
                                                   R_CSI21_Start
                                                   SPI_Init (SPI _G14)
                                                   read (xr20m1170)
                                                   write (xr20m1170)
           ENTRY                   ADDRESS         REF BY
           =====                   =======         ======
           _A_SO1                  000F0168 
           LOCAL                   ADDRESS         
           =====                   =======         
           SO1                     000F0168 
           SO1_bit                 000F0168 
    -------------------------------------------------------------------------
NEAR_A
  Relative segment, address: 000F016A - 000F016B (0x2 bytes), align: 0
  Segment part 59. ROOT       Intra module refs:   R_CSI21_Create
                                                   R_CSI21_Start
                                                   SPI_Init (SPI _G14)
                                                   read (xr20m1170)
                                                   write (xr20m1170)
           ENTRY                   ADDRESS         REF BY
           =====                   =======         ======
           _A_SOE1                 000F016A 
           LOCAL                   ADDRESS         
           =====                   =======         
           SOE1                    000F016A 
           SOE1L                   000F016A 
           SOE1L_bit               000F016A 
    -------------------------------------------------------------------------
NEAR_Z
  Relative segment, address: 000FADDE - 000FADDF (0x2 bytes), align: 1
  Segment part 82.            Intra module refs:   R_CSI21_Send_Receive
           ENTRY                   ADDRESS         REF BY
           =====                   =======         ======
           gp_csi21_rx_address     000FADDE        r_csi21_interrupt (r_cg_serial_user)
    -------------------------------------------------------------------------
NEAR_Z
  Relative segment, address: 000FADE0 - 000FADE1 (0x2 bytes), align: 1
  Segment part 85.            Intra module refs:   R_CSI21_Send_Receive
           ENTRY                   ADDRESS         REF BY
           =====                   =======         ======
           gp_csi21_tx_address     000FADE0        r_csi21_interrupt (r_cg_serial_user)
    -------------------------------------------------------------------------
NEAR_Z
  Relative segment, address: 000FADE2 - 000FADE3 (0x2 bytes), align: 1
  Segment part 87.            Intra module refs:   R_CSI21_Send_Receive
           ENTRY                   ADDRESS         REF BY
           =====                   =======         ======
           g_csi21_tx_count        000FADE2        r_csi21_interrupt (r_cg_serial_user)
    -------------------------------------------------------------------------
CODE
  Relative segment, address: 00008B0D - 00008B19 (0xd bytes), align: 0
  Segment part 112.
           ENTRY                   ADDRESS         REF BY
           =====                   =======         ======
           R_SAU1_Create           00008B0D        SPI2_Init (RDKRL78_spi)
               calls direct
    -------------------------------------------------------------------------
CODE
  Relative segment, address: 00008B1A - 00008B6D (0x54 bytes), align: 0
  Segment part 117.           Intra module refs:   R_SAU1_Create
           ENTRY                   ADDRESS         REF BY
           =====                   =======         ======
           R_CSI21_Create          00008B1A        SPI2_Init (RDKRL78_spi)
    -------------------------------------------------------------------------
CODE
  Relative segment, address: 00008B6E - 00008B96 (0x29 bytes), align: 0
  Segment part 118.
           ENTRY                   ADDRESS         REF BY
           =====                   =======         ======
           R_CSI21_Start           00008B6E        SPI2_Init (RDKRL78_spi)
    -------------------------------------------------------------------------
CODE
  Relative segment, address: 00008B97 - 00008BD8 (0x42 bytes), align: 0
  Segment part 120.
           ENTRY                   ADDRESS         REF BY
           =====                   =======         ======
           R_CSI21_Send_Receive    00008B97        SPI_Send (RDKRL78_spi)
                                                   SPI_SendReceive (RDKRL78_spi)
               CSTACK = 00000000 ( 00000004 )

    *************************************************************************

  FILE NAME : C:\Users\Steve\Dropbox\Kiln\CustomerProjects\RenesasDemo\Factory_Demo_Whisker\YRDKRL78G14\Debug\Obj\r_cg_serial_user.r87
  PROGRAM MODULE, NAME : r_cg_serial_user

  SEGMENTS IN THE MODULE
  ======================
NEAR_A
  Relative segment, address: 000F0142 - 000F0143 (0x2 bytes), align: 0
  Segment part 2. ROOT        Intra module refs:   r_csi21_interrupt
           ENTRY                   ADDRESS         REF BY
           =====                   =======         ======
           _A_SSR11                000F0142 
           LOCAL                   ADDRESS         
           =====                   =======         
           SSR11                   000F0142 
           SSR11L                  000F0142 
           SSR11L_bit              000F0142 
           SSR11_bit               000F0142 
    -------------------------------------------------------------------------
NEAR_Z
  Relative segment, address: 000FAFEF - 000FAFEF (0x1 bytes), align: 0
  Segment part 10.            Intra module refs:   r_csi21_callback_sendend
           ENTRY                   ADDRESS         REF BY
           =====                   =======         ======
           G_CSI21_SendingData     000FAFEF        SPI_Send (RDKRL78_spi)
                                                   SPI_SendReceive (RDKRL78_spi)
    -------------------------------------------------------------------------
NEAR_Z
  Relative segment, address: 000FAFF0 - 000FAFF0 (0x1 bytes), align: 0
  Segment part 11.            Intra module refs:   r_csi21_callback_receiveend
           ENTRY                   ADDRESS         REF BY
           =====                   =======         ======
           G_CSI21_ReceivingData   000FAFF0        SPI_Send (RDKRL78_spi)
                                                   SPI_SendReceive (RDKRL78_spi)
    -------------------------------------------------------------------------
CODE
  Relative segment, address: 00008BD9 - 00008C3D (0x65 bytes), align: 0
  Segment part 16.            Intra module refs:   r_csi21_interrupt::??INTVEC 22
           LOCAL                   ADDRESS         
           =====                   =======         
           r_csi21_interrupt       00008BD9 
               interrupt function
               calls direct
               CSTACK = 00000000 ( 00000008 )
    -------------------------------------------------------------------------
CODE
  Relative segment, address: 00008C3E - 00008C42 (0x5 bytes), align: 0
  Segment part 17.            Intra module refs:   r_csi21_interrupt
           LOCAL                   ADDRESS         
           =====                   =======         
           r_csi21_callback_receiveend
                                   00008C3E 
    -------------------------------------------------------------------------
CODE
  Relative segment, address: 00008C43 - 00008C43 (0x1 bytes), align: 0
  Segment part 18.            Intra module refs:   r_csi21_interrupt
           LOCAL                   ADDRESS         
           =====                   =======         
           r_csi21_callback_error
                                   00008C43 
    -------------------------------------------------------------------------
CODE
  Relative segment, address: 00008C44 - 00008C48 (0x5 bytes), align: 0
  Segment part 19.            Intra module refs:   r_csi21_interrupt
           LOCAL                   ADDRESS         
           =====                   =======         
           r_csi21_callback_sendend
                                   00008C44 
    -------------------------------------------------------------------------
INTVEC
  Common segment, address: 00000000 - 00000017 (0x18 bytes), align: 1
  Segment part 4. ROOT 
           LOCAL                   ADDRESS         
           =====                   =======         
           r_csi21_interrupt::??INTVEC 22
                                   00000016 

    *************************************************************************

  FILE NAME : C:\Users\Steve\Dropbox\Kiln\CustomerProjects\RenesasDemo\Factory_Demo_Whisker\YRDKRL78G14\Debug\Obj\r_cg_timer.r87
  PROGRAM MODULE, NAME : r_cg_timer

  SEGMENTS IN THE MODULE
  ======================
SADDR_A
  Relative segment, address: 000FFF18 - 000FFF19 (0x2 bytes), align: 0
  Segment part 2. ROOT 
           ENTRY                   ADDRESS         REF BY
           =====                   =======         ======
           _A_TDR00                000FFF18 
           LOCAL                   ADDRESS         
           =====                   =======         
           TDR00                   000FFF18 
           TDR00_bit               000FFF18 
    -------------------------------------------------------------------------
SADDR_A
  Relative segment, address: 000FFF1A - 000FFF1B (0x2 bytes), align: 0
  Segment part 3. ROOT 
           ENTRY                   ADDRESS         REF BY
           =====                   =======         ======
           _A_TDR01                000FFF1A 
           LOCAL                   ADDRESS         
           =====                   =======         
           TDR01                   000FFF1A 
           TDR01H                  000FFF1B 
           TDR01H_bit              000FFF1B 
           TDR01L                  000FFF1A 
           TDR01L_bit              000FFF1A 
           TDR01_bit               000FFF1A 
    -------------------------------------------------------------------------
NEAR_A
  Relative segment, address: 000FFF64 - 000FFF65 (0x2 bytes), align: 0
  Segment part 5. ROOT 
           ENTRY                   ADDRESS         REF BY
           =====                   =======         ======
           _A_TDR02                000FFF64 
           LOCAL                   ADDRESS         
           =====                   =======         
           TDR02                   000FFF64 
           TDR02_bit               000FFF64 
    -------------------------------------------------------------------------
NEAR_A
  Relative segment, address: 000F0190 - 000F0191 (0x2 bytes), align: 0
  Segment part 11. ROOT 
           ENTRY                   ADDRESS         REF BY
           =====                   =======         ======
           _A_TMR00                000F0190 
           LOCAL                   ADDRESS         
           =====                   =======         
           TMR00                   000F0190 
           TMR00_bit               000F0190 
    -------------------------------------------------------------------------
NEAR_A
  Relative segment, address: 000F0192 - 000F0193 (0x2 bytes), align: 0
  Segment part 12. ROOT 
           ENTRY                   ADDRESS         REF BY
           =====                   =======         ======
           _A_TMR01                000F0192 
           LOCAL                   ADDRESS         
           =====                   =======         
           TMR01                   000F0192 
           TMR01_bit               000F0192 
    -------------------------------------------------------------------------
NEAR_A
  Relative segment, address: 000F0194 - 000F0195 (0x2 bytes), align: 0
  Segment part 13. ROOT 
           ENTRY                   ADDRESS         REF BY
           =====                   =======         ======
           _A_TMR02                000F0194 
           LOCAL                   ADDRESS         
           =====                   =======         
           TMR02                   000F0194 
           TMR02_bit               000F0194 
    -------------------------------------------------------------------------
NEAR_A
  Relative segment, address: 000F01B2 - 000F01B3 (0x2 bytes), align: 0
  Segment part 14. ROOT 
           ENTRY                   ADDRESS         REF BY
           =====                   =======         ======
           _A_TS0                  000F01B2 
           LOCAL                   ADDRESS         
           =====                   =======         
           TS0                     000F01B2 
           TS0L                    000F01B2 
           TS0L_bit                000F01B2 
    -------------------------------------------------------------------------
NEAR_A
  Relative segment, address: 000F01B4 - 000F01B5 (0x2 bytes), align: 0
  Segment part 15. ROOT 
           ENTRY                   ADDRESS         REF BY
           =====                   =======         ======
           _A_TT0                  000F01B4 
           LOCAL                   ADDRESS         
           =====                   =======         
           TT0                     000F01B4 
           TT0L                    000F01B4 
           TT0L_bit                000F01B4 
    -------------------------------------------------------------------------
NEAR_A
  Relative segment, address: 000F01B6 - 000F01B7 (0x2 bytes), align: 0
  Segment part 16. ROOT 
           ENTRY                   ADDRESS         REF BY
           =====                   =======         ======
           _A_TPS0                 000F01B6 
           LOCAL                   ADDRESS         
           =====                   =======         
           TPS0                    000F01B6 
           TPS0_bit                000F01B6 
    -------------------------------------------------------------------------
NEAR_A
  Relative segment, address: 000F01B8 - 000F01B9 (0x2 bytes), align: 0
  Segment part 17. ROOT 
           ENTRY                   ADDRESS         REF BY
           =====                   =======         ======
           _A_TO0                  000F01B8 
           LOCAL                   ADDRESS         
           =====                   =======         
           TO0                     000F01B8 
           TO0L                    000F01B8 
           TO0L_bit                000F01B8 
           TO0_bit                 000F01B8 
    -------------------------------------------------------------------------
NEAR_A
  Relative segment, address: 000F01BA - 000F01BB (0x2 bytes), align: 0
  Segment part 18. ROOT 
           ENTRY                   ADDRESS         REF BY
           =====                   =======         ======
           _A_TOE0                 000F01BA 
           LOCAL                   ADDRESS         
           =====                   =======         
           TOE0                    000F01BA 
           TOE0L                   000F01BA 
           TOE0L_bit               000F01BA 
    -------------------------------------------------------------------------
NEAR_A
  Relative segment, address: 000F01BC - 000F01BD (0x2 bytes), align: 0
  Segment part 19. ROOT 
           ENTRY                   ADDRESS         REF BY
           =====                   =======         ======
           _A_TOL0                 000F01BC 
           LOCAL                   ADDRESS         
           =====                   =======         
           TOL0                    000F01BC 
           TOL0L                   000F01BC 
           TOL0L_bit               000F01BC 
           TOL0_bit                000F01BC 
    -------------------------------------------------------------------------
NEAR_A
  Relative segment, address: 000F01BE - 000F01BF (0x2 bytes), align: 0
  Segment part 20. ROOT 
           ENTRY                   ADDRESS         REF BY
           =====                   =======         ======
           _A_TOM0                 000F01BE 
           LOCAL                   ADDRESS         
           =====                   =======         
           TOM0                    000F01BE 
           TOM0L                   000F01BE 
           TOM0L_bit               000F01BE 
           TOM0_bit                000F01BE 

    *************************************************************************

  FILE NAME : C:\Users\Steve\Dropbox\Kiln\CustomerProjects\RenesasDemo\Factory_Demo_Whisker\YRDKRL78G14\Debug\Obj\r_cg_timer_user.r87
    *************************************************************************

  FILE NAME : C:\Users\Steve\Dropbox\Kiln\CustomerProjects\RenesasDemo\Factory_Demo_Whisker\YRDKRL78G14\Debug\Obj\RDKRL78_spi.r87
  PROGRAM MODULE, NAME : RDKRL78_spi

  SEGMENTS IN THE MODULE
  ======================
NEAR_I
  Relative segment, address: 000F9FAE - 000F9FB7 (0xa bytes), align: 1
  Segment part 5.             Intra module refs:   SPI_CS_End
                                                   SPI_CS_Start
           ENTRY                   ADDRESS         REF BY
           =====                   =======         ======
           SPI_CS_Port             000F9FAE 
    -------------------------------------------------------------------------
NEAR_I
  Relative segment, address: 000F9FB8 - 000F9FBD (0x6 bytes), align: 1
  Segment part 7.             Intra module refs:   SPI_CS_End
                                                   SPI_CS_Start
           ENTRY                   ADDRESS         REF BY
           =====                   =======         ======
           SPI2_CS_Pin             000F9FB8 
    -------------------------------------------------------------------------
CODE
  Relative segment, address: 00008C49 - 00008C70 (0x28 bytes), align: 0
  Segment part 9.             Intra module refs:   SPI2_Init
           ENTRY                   ADDRESS         REF BY
           =====                   =======         ======
           IO_Reset                00008C49 
    -------------------------------------------------------------------------
CODE
  Relative segment, address: 00008C71 - 00008C7D (0xd bytes), align: 0
  Segment part 10.
           ENTRY                   ADDRESS         REF BY
           =====                   =======         ======
           SPI2_Init               00008C71        main (main)
               calls direct
    -------------------------------------------------------------------------
CODE
  Relative segment, address: 00008C7E - 00008CB1 (0x34 bytes), align: 0
  Segment part 11.            Intra module refs:   SPI_Send
                                                   SPI_SendReceive
           ENTRY                   ADDRESS         REF BY
           =====                   =======         ======
           SPI_CS_Start            00008C7E 
               CSTACK = 00000000 ( 00000004 )
    -------------------------------------------------------------------------
CODE
  Relative segment, address: 00008CB2 - 00008CDF (0x2e bytes), align: 0
  Segment part 12.            Intra module refs:   SPI_Send
                                                   SPI_SendReceive
           ENTRY                   ADDRESS         REF BY
           =====                   =======         ======
           SPI_CS_End              00008CB2 
               CSTACK = 00000000 ( 00000004 )
    -------------------------------------------------------------------------
CODE
  Relative segment, address: 00008CE0 - 00008D09 (0x2a bytes), align: 0
  Segment part 13.
           ENTRY                   ADDRESS         REF BY
           =====                   =======         ======
           SPI_Send                00008CE0        LCD_SPI_CommandSend (glyph_register)
                                                   LCD_SPI_DataSend (glyph_register)
                                                   write (xr20m1170)
               calls direct
               CSTACK = 00000000 ( 00000026 )
    -------------------------------------------------------------------------
CODE
  Relative segment, address: 00008D0A - 00008D5C (0x53 bytes), align: 0
  Segment part 14.
           ENTRY                   ADDRESS         REF BY
           =====                   =======         ======
           SPI_SendReceive         00008D0A        read (xr20m1170)
               calls direct
               CSTACK = 00000002 ( 00000008 )
    -------------------------------------------------------------------------
NEAR_ID
  Relative segment, address: 0000B6A4 - 0000B6AD (0xa bytes), align: 1
  Segment part 6.             Intra module refs:   SPI_CS_Port
    -------------------------------------------------------------------------
NEAR_ID
  Relative segment, address: 0000B6AE - 0000B6B3 (0x6 bytes), align: 1
  Segment part 8.             Intra module refs:   SPI2_CS_Pin

    *************************************************************************

  FILE NAME : C:\Users\Steve\Dropbox\Kiln\CustomerProjects\RenesasDemo\Factory_Demo_Whisker\YRDKRL78G14\drv\Glyph\RL78GlyphLib_Debug.r87
  LIBRARY MODULE, NAME : ST7579_LCD

  SEGMENTS IN THE MODULE
  ======================
CODE
  Relative segment, address: 00008D5D - 00008DB1 (0x55 bytes), align: 0
  Segment part 3.
           ENTRY                   ADDRESS         REF BY
           =====                   =======         ======
           ST7579_Open             00008D5D        GlyphLCDOpen (glyph_register)
               calls direct
               CSTACK = 00000000 ( 00000002 )
    -------------------------------------------------------------------------
CODE
  Relative segment, address: 00008DB2 - 00008DB3 (0x2 bytes), align: 0
  Segment part 4.
           ENTRY                   ADDRESS         REF BY
           =====                   =======         ======
           ST7579_Close            00008DB2        GlyphLCDOpen (glyph_register)
    -------------------------------------------------------------------------
CODE
  Relative segment, address: 00008DB4 - 0000919F (0x3ec bytes), align: 0
  Segment part 5.             Intra module refs:   Segment part 31
           ENTRY                   ADDRESS         REF BY
           =====                   =======         ======
           ST7579_Write            00008DB4        GlyphLCDOpen (glyph_register)
               calls direct and indirect
               CSTACK = 00000000 ( 0000000E )
    -------------------------------------------------------------------------
CODE
  Relative segment, address: 000091A0 - 000091A4 (0x5 bytes), align: 0
  Segment part 6.             Intra module refs:   ST7579_Write
           LOCAL                   ADDRESS         
           =====                   =======         
           ?Subroutine7            000091A0 
    -------------------------------------------------------------------------
CODE
  Relative segment, address: 000091A5 - 000091AA (0x6 bytes), align: 0
  Segment part 7.             Intra module refs:   ST7579_Write
           LOCAL                   ADDRESS         
           =====                   =======         
           ?Subroutine5            000091A5 
    -------------------------------------------------------------------------
CODE
  Relative segment, address: 000091AB - 000091AC (0x2 bytes), align: 0
  Segment part 8.             Intra module refs:   ST7579_Write
           LOCAL                   ADDRESS         
           =====                   =======         
           ?Subroutine4            000091AB 
    -------------------------------------------------------------------------
CODE
  Relative segment, address: 000091AD - 000091AF (0x3 bytes), align: 0
  Segment part 9.             Intra module refs:   ?Subroutine4
    -------------------------------------------------------------------------
CODE
  Relative segment, address: 000091B0 - 000091B4 (0x5 bytes), align: 0
  Segment part 10.            Intra module refs:   ?Subroutine4
                                                   Segment part 27
                                                   Segment part 9
           LOCAL                   ADDRESS         
           =====                   =======         
           ?Subroutine11           000091B0 
    -------------------------------------------------------------------------
CODE
  Relative segment, address: 000091B5 - 000091BB (0x7 bytes), align: 0
  Segment part 11.            Intra module refs:   ST7579_Write
           LOCAL                   ADDRESS         
           =====                   =======         
           ?Subroutine3            000091B5 
    -------------------------------------------------------------------------
CODE
  Relative segment, address: 000091BC - 000091C9 (0xe bytes), align: 0
  Segment part 12.            Intra module refs:   ?Subroutine3
                                                   ST7579_Write
           LOCAL                   ADDRESS         
           =====                   =======         
           ?Subroutine10           000091BC 
    -------------------------------------------------------------------------
CODE
  Relative segment, address: 000091CA - 000091D1 (0x8 bytes), align: 0
  Segment part 13.            Intra module refs:   ST7579_Write
           LOCAL                   ADDRESS         
           =====                   =======         
           ?Subroutine2            000091CA 
    -------------------------------------------------------------------------
CODE
  Relative segment, address: 000091D2 - 00009276 (0xa5 bytes), align: 0
  Segment part 14.            Intra module refs:   Segment part 32
           ENTRY                   ADDRESS         REF BY
           =====                   =======         ======
           ST7579_Read             000091D2        GlyphLCDOpen (glyph_register)
               CSTACK = 00000000 ( 00000004 )
    -------------------------------------------------------------------------
CODE
  Relative segment, address: 00009277 - 00009280 (0xa bytes), align: 0
  Segment part 15.            Intra module refs:   ST7579_Read
                                                   ST7579_Write
           LOCAL                   ADDRESS         
           =====                   =======         
           ?Subroutine9            00009277 
    -------------------------------------------------------------------------
CODE
  Relative segment, address: 00009281 - 00009286 (0x6 bytes), align: 0
  Segment part 16.            Intra module refs:   ST7579_Read
                                                   ST7579_Write
           LOCAL                   ADDRESS         
           =====                   =======         
           ?Subroutine8            00009281 
    -------------------------------------------------------------------------
CODE
  Relative segment, address: 00009287 - 0000928C (0x6 bytes), align: 0
  Segment part 17.            Intra module refs:   ST7579_Read
                                                   ST7579_Write
           LOCAL                   ADDRESS         
           =====                   =======         
           ?Subroutine6            00009287 
    -------------------------------------------------------------------------
CODE
  Relative segment, address: 0000928D - 00009328 (0x9c bytes), align: 0
  Segment part 18.            Intra module refs:   ST7579_Config
                                                   ST7579_Write
                                                   Segment part 33
           ENTRY                   ADDRESS         REF BY
           =====                   =======         ======
           ST7579_SetSystemBiasBooster
                                   0000928D 
               calls indirect
               CSTACK = 0000000C ( 00000004 )
    -------------------------------------------------------------------------
CODE
  Relative segment, address: 00009329 - 00009390 (0x68 bytes), align: 0
  Segment part 19.            Intra module refs:   ST7579_Config
                                                   ST7579_Write
           ENTRY                   ADDRESS         REF BY
           =====                   =======         ======
           ST7579_SetVO_Range      00009329 
               calls indirect
               CSTACK = 0000000C ( 00000002 )
    -------------------------------------------------------------------------
CODE
  Relative segment, address: 00009391 - 000093BB (0x2b bytes), align: 0
  Segment part 20.            Intra module refs:   ST7579_Open
           ENTRY                   ADDRESS         REF BY
           =====                   =======         ======
           ST7579_Config           00009391 
               calls direct
               CSTACK = 00000002 ( 00000004 )
    -------------------------------------------------------------------------
CODE
  Relative segment, address: 000093BC - 000093D5 (0x1a bytes), align: 0
  Segment part 21.            Intra module refs:   ST7579_Write
           ENTRY                   ADDRESS         REF BY
           =====                   =======         ======
           ST7579_Send16bitsCommand
                                   000093BC 
               calls indirect
               CSTACK = 0000000C ( 00000002 )
    -------------------------------------------------------------------------
CODE
  Relative segment, address: 000093D6 - 000093D8 (0x3 bytes), align: 0
  Segment part 22.            Intra module refs:   ST7579_Send16bitsCommand
                                                   ST7579_SetChar
                                                   ST7579_SetPage
           LOCAL                   ADDRESS         
           =====                   =======         
           ?Subroutine0            000093D6 
    -------------------------------------------------------------------------
CODE
  Relative segment, address: 000093D9 - 000093E1 (0x9 bytes), align: 0
  Segment part 23.            Intra module refs:   ?Subroutine0
                                                   ST7579_SetLine
                                                   ST7579_SetSystemBiasBooster
                                                   ST7579_SetVO_Range
    -------------------------------------------------------------------------
CODE
  Relative segment, address: 000093E2 - 00009454 (0x73 bytes), align: 0
  Segment part 25.            Intra module refs:   ST7579_Config
                                                   ST7579_Write
           ENTRY                   ADDRESS         REF BY
           =====                   =======         ======
           ST7579_SetFrameRate     000093E2 
               calls indirect
               CSTACK = 0000000C ( 00000002 )
    -------------------------------------------------------------------------
CODE
  Relative segment, address: 00009455 - 00009455 (0x1 bytes), align: 0
  Segment part 26.            Intra module refs:   ST7579_SetFrameRate
           LOCAL                   ADDRESS         
           =====                   =======         
           ?Subroutine1            00009455 
    -------------------------------------------------------------------------
CODE
  Relative segment, address: 00009456 - 0000945B (0x6 bytes), align: 0
  Segment part 27.            Intra module refs:   ?Subroutine1
                                                   ST7579_SetLine
    -------------------------------------------------------------------------
CODE
  Relative segment, address: 0000945C - 00009480 (0x25 bytes), align: 0
  Segment part 28.            Intra module refs:   ST7579_Config
                                                   ST7579_Write
           ENTRY                   ADDRESS         REF BY
           =====                   =======         ======
           ST7579_SetPage          0000945C 
               calls indirect
               CSTACK = 0000000C ( 00000002 )
    -------------------------------------------------------------------------
CODE
  Relative segment, address: 00009481 - 000094A3 (0x23 bytes), align: 0
  Segment part 29.            Intra module refs:   ST7579_Config
                                                   ST7579_Write
           ENTRY                   ADDRESS         REF BY
           =====                   =======         ======
           ST7579_SetChar          00009481 
               calls indirect
               CSTACK = 0000000C ( 00000002 )
    -------------------------------------------------------------------------
CODE
  Relative segment, address: 000094A4 - 0000955D (0xba bytes), align: 0
  Segment part 30.            Intra module refs:   ST7579_Write
           ENTRY                   ADDRESS         REF BY
           =====                   =======         ======
           ST7579_SetLine          000094A4 
               calls indirect
               CSTACK = 0000000C ( 00000010 )
    -------------------------------------------------------------------------
SWITCH
  Relative segment, address: 0000B56A - 0000B599 (0x30 bytes), align: 1
  Segment part 31.            Intra module refs:   ST7579_Write
    -------------------------------------------------------------------------
SWITCH
  Relative segment, address: 0000B59A - 0000B5CB (0x32 bytes), align: 1
  Segment part 32.            Intra module refs:   ST7579_Read
    -------------------------------------------------------------------------
SWITCH
  Relative segment, address: 0000B5CC - 0000B5F5 (0x2a bytes), align: 1
  Segment part 33.            Intra module refs:   ST7579_SetSystemBiasBooster
    -------------------------------------------------------------------------
NEAR_CONST
  Relative segment, address: 000F3904 - 000F390D (0xa bytes), align: 1
  Segment part 2.             Intra module refs:   ST7579_SetLine
    -------------------------------------------------------------------------
NEAR_CONST_ID
  Relative segment, address: 00003904 - 0000390D (0xa bytes), align: 1
  Segment part 34.            Intra module refs:   Segment part 2

    -------------------------------------------------------------------------
  LIBRARY MODULE, NAME : font_8x8

  SEGMENTS IN THE MODULE
  ======================
NEAR_CONST
  Relative segment, address: 000F390E - 000F3917 (0xa bytes), align: 1
  Segment part 2.             Intra module refs:   Font8x8_table
           ENTRY                   ADDRESS         REF BY
           =====                   =======         ======
           Font8x8_char_0          000F390E 
    -------------------------------------------------------------------------
NEAR_CONST
  Relative segment, address: 000F3918 - 000F3921 (0xa bytes), align: 1
  Segment part 3.             Intra module refs:   Font8x8_table
           ENTRY                   ADDRESS         REF BY
           =====                   =======         ======
           Font8x8_char_1          000F3918 
    -------------------------------------------------------------------------
NEAR_CONST
  Relative segment, address: 000F3922 - 000F392B (0xa bytes), align: 1
  Segment part 4.             Intra module refs:   Font8x8_table
           ENTRY                   ADDRESS         REF BY
           =====                   =======         ======
           Font8x8_char_2          000F3922 
    -------------------------------------------------------------------------
NEAR_CONST
  Relative segment, address: 000F392C - 000F3935 (0xa bytes), align: 1
  Segment part 5.             Intra module refs:   Font8x8_table
           ENTRY                   ADDRESS         REF BY
           =====                   =======         ======
           Font8x8_char_3          000F392C 
    -------------------------------------------------------------------------
NEAR_CONST
  Relative segment, address: 000F3936 - 000F393F (0xa bytes), align: 1
  Segment part 6.             Intra module refs:   Font8x8_table
           ENTRY                   ADDRESS         REF BY
           =====                   =======         ======
           Font8x8_char_4          000F3936 
    -------------------------------------------------------------------------
NEAR_CONST
  Relative segment, address: 000F3940 - 000F3949 (0xa bytes), align: 1
  Segment part 7.             Intra module refs:   Font8x8_table
           ENTRY                   ADDRESS         REF BY
           =====                   =======         ======
           Font8x8_char_5          000F3940 
    -------------------------------------------------------------------------
NEAR_CONST
  Relative segment, address: 000F394A - 000F3953 (0xa bytes), align: 1
  Segment part 8.             Intra module refs:   Font8x8_table
           ENTRY                   ADDRESS         REF BY
           =====                   =======         ======
           Font8x8_char_6          000F394A 
    -------------------------------------------------------------------------
NEAR_CONST
  Relative segment, address: 000F3954 - 000F395D (0xa bytes), align: 1
  Segment part 9.             Intra module refs:   Font8x8_table
           ENTRY                   ADDRESS         REF BY
           =====                   =======         ======
           Font8x8_char_7          000F3954 
    -------------------------------------------------------------------------
NEAR_CONST
  Relative segment, address: 000F395E - 000F3967 (0xa bytes), align: 1
  Segment part 10.            Intra module refs:   Font8x8_table
           ENTRY                   ADDRESS         REF BY
           =====                   =======         ======
           Font8x8_char_8          000F395E 
    -------------------------------------------------------------------------
NEAR_CONST
  Relative segment, address: 000F3968 - 000F3971 (0xa bytes), align: 1
  Segment part 11.            Intra module refs:   Font8x8_table
           ENTRY                   ADDRESS         REF BY
           =====                   =======         ======
           Font8x8_char_9          000F3968 
    -------------------------------------------------------------------------
NEAR_CONST
  Relative segment, address: 000F3972 - 000F397B (0xa bytes), align: 1
  Segment part 12.            Intra module refs:   Font8x8_table
           ENTRY                   ADDRESS         REF BY
           =====                   =======         ======
           Font8x8_char_10         000F3972 
    -------------------------------------------------------------------------
NEAR_CONST
  Relative segment, address: 000F397C - 000F3985 (0xa bytes), align: 1
  Segment part 13.            Intra module refs:   Font8x8_table
           ENTRY                   ADDRESS         REF BY
           =====                   =======         ======
           Font8x8_char_11         000F397C 
    -------------------------------------------------------------------------
NEAR_CONST
  Relative segment, address: 000F3986 - 000F398F (0xa bytes), align: 1
  Segment part 14.            Intra module refs:   Font8x8_table
           ENTRY                   ADDRESS         REF BY
           =====                   =======         ======
           Font8x8_char_12         000F3986 
    -------------------------------------------------------------------------
NEAR_CONST
  Relative segment, address: 000F3990 - 000F3999 (0xa bytes), align: 1
  Segment part 15.            Intra module refs:   Font8x8_table
           ENTRY                   ADDRESS         REF BY
           =====                   =======         ======
           Font8x8_char_13         000F3990 
    -------------------------------------------------------------------------
NEAR_CONST
  Relative segment, address: 000F399A - 000F39A3 (0xa bytes), align: 1
  Segment part 16.            Intra module refs:   Font8x8_table
           ENTRY                   ADDRESS         REF BY
           =====                   =======         ======
           Font8x8_char_14         000F399A 
    -------------------------------------------------------------------------
NEAR_CONST
  Relative segment, address: 000F39A4 - 000F39AD (0xa bytes), align: 1
  Segment part 17.            Intra module refs:   Font8x8_table
           ENTRY                   ADDRESS         REF BY
           =====                   =======         ======
           Font8x8_char_15         000F39A4 
    -------------------------------------------------------------------------
NEAR_CONST
  Relative segment, address: 000F39AE - 000F39B7 (0xa bytes), align: 1
  Segment part 18.            Intra module refs:   Font8x8_table
           ENTRY                   ADDRESS         REF BY
           =====                   =======         ======
           Font8x8_char_16         000F39AE 
    -------------------------------------------------------------------------
NEAR_CONST
  Relative segment, address: 000F39B8 - 000F39C1 (0xa bytes), align: 1
  Segment part 19.            Intra module refs:   Font8x8_table
           ENTRY                   ADDRESS         REF BY
           =====                   =======         ======
           Font8x8_char_17         000F39B8 
    -------------------------------------------------------------------------
NEAR_CONST
  Relative segment, address: 000F39C2 - 000F39CB (0xa bytes), align: 1
  Segment part 20.            Intra module refs:   Font8x8_table
           ENTRY                   ADDRESS         REF BY
           =====                   =======         ======
           Font8x8_char_18         000F39C2 
    -------------------------------------------------------------------------
NEAR_CONST
  Relative segment, address: 000F39CC - 000F39D5 (0xa bytes), align: 1
  Segment part 21.            Intra module refs:   Font8x8_table
           ENTRY                   ADDRESS         REF BY
           =====                   =======         ======
           Font8x8_char_19         000F39CC 
    -------------------------------------------------------------------------
NEAR_CONST
  Relative segment, address: 000F39D6 - 000F39DF (0xa bytes), align: 1
  Segment part 22.            Intra module refs:   Font8x8_table
           ENTRY                   ADDRESS         REF BY
           =====                   =======         ======
           Font8x8_char_20         000F39D6 
    -------------------------------------------------------------------------
NEAR_CONST
  Relative segment, address: 000F39E0 - 000F39E9 (0xa bytes), align: 1
  Segment part 23.            Intra module refs:   Font8x8_table
           ENTRY                   ADDRESS         REF BY
           =====                   =======         ======
           Font8x8_char_21         000F39E0 
    -------------------------------------------------------------------------
NEAR_CONST
  Relative segment, address: 000F39EA - 000F39F3 (0xa bytes), align: 1
  Segment part 24.            Intra module refs:   Font8x8_table
           ENTRY                   ADDRESS         REF BY
           =====                   =======         ======
           Font8x8_char_22         000F39EA 
    -------------------------------------------------------------------------
NEAR_CONST
  Relative segment, address: 000F39F4 - 000F39FD (0xa bytes), align: 1
  Segment part 25.            Intra module refs:   Font8x8_table
           ENTRY                   ADDRESS         REF BY
           =====                   =======         ======
           Font8x8_char_23         000F39F4 
    -------------------------------------------------------------------------
NEAR_CONST
  Relative segment, address: 000F39FE - 000F3A07 (0xa bytes), align: 1
  Segment part 26.            Intra module refs:   Font8x8_table
           ENTRY                   ADDRESS         REF BY
           =====                   =======         ======
           Font8x8_char_24         000F39FE 
    -------------------------------------------------------------------------
NEAR_CONST
  Relative segment, address: 000F3A08 - 000F3A11 (0xa bytes), align: 1
  Segment part 27.            Intra module refs:   Font8x8_table
           ENTRY                   ADDRESS         REF BY
           =====                   =======         ======
           Font8x8_char_25         000F3A08 
    -------------------------------------------------------------------------
NEAR_CONST
  Relative segment, address: 000F3A12 - 000F3A1B (0xa bytes), align: 1
  Segment part 28.            Intra module refs:   Font8x8_table
           ENTRY                   ADDRESS         REF BY
           =====                   =======         ======
           Font8x8_char_26         000F3A12 
    -------------------------------------------------------------------------
NEAR_CONST
  Relative segment, address: 000F3A1C - 000F3A25 (0xa bytes), align: 1
  Segment part 29.            Intra module refs:   Font8x8_table
           ENTRY                   ADDRESS         REF BY
           =====                   =======         ======
           Font8x8_char_27         000F3A1C 
    -------------------------------------------------------------------------
NEAR_CONST
  Relative segment, address: 000F3A26 - 000F3A2F (0xa bytes), align: 1
  Segment part 30.            Intra module refs:   Font8x8_table
           ENTRY                   ADDRESS         REF BY
           =====                   =======         ======
           Font8x8_char_28         000F3A26 
    -------------------------------------------------------------------------
NEAR_CONST
  Relative segment, address: 000F3A30 - 000F3A39 (0xa bytes), align: 1
  Segment part 31.            Intra module refs:   Font8x8_table
           ENTRY                   ADDRESS         REF BY
           =====                   =======         ======
           Font8x8_char_29         000F3A30 
    -------------------------------------------------------------------------
NEAR_CONST
  Relative segment, address: 000F3A3A - 000F3A43 (0xa bytes), align: 1
  Segment part 32.            Intra module refs:   Font8x8_table
           ENTRY                   ADDRESS         REF BY
           =====                   =======         ======
           Font8x8_char_30         000F3A3A 
    -------------------------------------------------------------------------
NEAR_CONST
  Relative segment, address: 000F3A44 - 000F3A4D (0xa bytes), align: 1
  Segment part 33.            Intra module refs:   Font8x8_table
           ENTRY                   ADDRESS         REF BY
           =====                   =======         ======
           Font8x8_char_31         000F3A44 
    -------------------------------------------------------------------------
NEAR_CONST
  Relative segment, address: 000F3A4E - 000F3A57 (0xa bytes), align: 1
  Segment part 34.            Intra module refs:   Font8x8_table
           ENTRY                   ADDRESS         REF BY
           =====                   =======         ======
           Font8x8_char_32         000F3A4E 
    -------------------------------------------------------------------------
NEAR_CONST
  Relative segment, address: 000F3A58 - 000F3A61 (0xa bytes), align: 1
  Segment part 35.            Intra module refs:   Font8x8_table
           ENTRY                   ADDRESS         REF BY
           =====                   =======         ======
           Font8x8_char_33         000F3A58 
    -------------------------------------------------------------------------
NEAR_CONST
  Relative segment, address: 000F3A62 - 000F3A6B (0xa bytes), align: 1
  Segment part 36.            Intra module refs:   Font8x8_table
           ENTRY                   ADDRESS         REF BY
           =====                   =======         ======
           Font8x8_char_34         000F3A62 
    -------------------------------------------------------------------------
NEAR_CONST
  Relative segment, address: 000F3A6C - 000F3A75 (0xa bytes), align: 1
  Segment part 37.            Intra module refs:   Font8x8_table
           ENTRY                   ADDRESS         REF BY
           =====                   =======         ======
           Font8x8_char_35         000F3A6C 
    -------------------------------------------------------------------------
NEAR_CONST
  Relative segment, address: 000F3A76 - 000F3A7F (0xa bytes), align: 1
  Segment part 38.            Intra module refs:   Font8x8_table
           ENTRY                   ADDRESS         REF BY
           =====                   =======         ======
           Font8x8_char_36         000F3A76 
    -------------------------------------------------------------------------
NEAR_CONST
  Relative segment, address: 000F3A80 - 000F3A89 (0xa bytes), align: 1
  Segment part 39.            Intra module refs:   Font8x8_table
           ENTRY                   ADDRESS         REF BY
           =====                   =======         ======
           Font8x8_char_37         000F3A80 
    -------------------------------------------------------------------------
NEAR_CONST
  Relative segment, address: 000F3A8A - 000F3A93 (0xa bytes), align: 1
  Segment part 40.            Intra module refs:   Font8x8_table
           ENTRY                   ADDRESS         REF BY
           =====                   =======         ======
           Font8x8_char_38         000F3A8A 
    -------------------------------------------------------------------------
NEAR_CONST
  Relative segment, address: 000F3A94 - 000F3A9D (0xa bytes), align: 1
  Segment part 41.            Intra module refs:   Font8x8_table
           ENTRY                   ADDRESS         REF BY
           =====                   =======         ======
           Font8x8_char_39         000F3A94 
    -------------------------------------------------------------------------
NEAR_CONST
  Relative segment, address: 000F3A9E - 000F3AA7 (0xa bytes), align: 1
  Segment part 42.            Intra module refs:   Font8x8_table
           ENTRY                   ADDRESS         REF BY
           =====                   =======         ======
           Font8x8_char_40         000F3A9E 
    -------------------------------------------------------------------------
NEAR_CONST
  Relative segment, address: 000F3AA8 - 000F3AB1 (0xa bytes), align: 1
  Segment part 43.            Intra module refs:   Font8x8_table
           ENTRY                   ADDRESS         REF BY
           =====                   =======         ======
           Font8x8_char_41         000F3AA8 
    -------------------------------------------------------------------------
NEAR_CONST
  Relative segment, address: 000F3AB2 - 000F3ABB (0xa bytes), align: 1
  Segment part 44.            Intra module refs:   Font8x8_table
           ENTRY                   ADDRESS         REF BY
           =====                   =======         ======
           Font8x8_char_42         000F3AB2 
    -------------------------------------------------------------------------
NEAR_CONST
  Relative segment, address: 000F3ABC - 000F3AC5 (0xa bytes), align: 1
  Segment part 45.            Intra module refs:   Font8x8_table
           ENTRY                   ADDRESS         REF BY
           =====                   =======         ======
           Font8x8_char_43         000F3ABC 
    -------------------------------------------------------------------------
NEAR_CONST
  Relative segment, address: 000F3AC6 - 000F3ACF (0xa bytes), align: 1
  Segment part 46.            Intra module refs:   Font8x8_table
           ENTRY                   ADDRESS         REF BY
           =====                   =======         ======
           Font8x8_char_44         000F3AC6 
    -------------------------------------------------------------------------
NEAR_CONST
  Relative segment, address: 000F3AD0 - 000F3AD9 (0xa bytes), align: 1
  Segment part 47.            Intra module refs:   Font8x8_table
           ENTRY                   ADDRESS         REF BY
           =====                   =======         ======
           Font8x8_char_45         000F3AD0 
    -------------------------------------------------------------------------
NEAR_CONST
  Relative segment, address: 000F3ADA - 000F3AE3 (0xa bytes), align: 1
  Segment part 48.            Intra module refs:   Font8x8_table
           ENTRY                   ADDRESS         REF BY
           =====                   =======         ======
           Font8x8_char_46         000F3ADA 
    -------------------------------------------------------------------------
NEAR_CONST
  Relative segment, address: 000F3AE4 - 000F3AED (0xa bytes), align: 1
  Segment part 49.            Intra module refs:   Font8x8_table
           ENTRY                   ADDRESS         REF BY
           =====                   =======         ======
           Font8x8_char_47         000F3AE4 
    -------------------------------------------------------------------------
NEAR_CONST
  Relative segment, address: 000F3AEE - 000F3AF7 (0xa bytes), align: 1
  Segment part 50.            Intra module refs:   Font8x8_table
           ENTRY                   ADDRESS         REF BY
           =====                   =======         ======
           Font8x8_char_48         000F3AEE 
    -------------------------------------------------------------------------
NEAR_CONST
  Relative segment, address: 000F3AF8 - 000F3B01 (0xa bytes), align: 1
  Segment part 51.            Intra module refs:   Font8x8_table
           ENTRY                   ADDRESS         REF BY
           =====                   =======         ======
           Font8x8_char_49         000F3AF8 
    -------------------------------------------------------------------------
NEAR_CONST
  Relative segment, address: 000F3B02 - 000F3B0B (0xa bytes), align: 1
  Segment part 52.            Intra module refs:   Font8x8_table
           ENTRY                   ADDRESS         REF BY
           =====                   =======         ======
           Font8x8_char_50         000F3B02 
    -------------------------------------------------------------------------
NEAR_CONST
  Relative segment, address: 000F3B0C - 000F3B15 (0xa bytes), align: 1
  Segment part 53.            Intra module refs:   Font8x8_table
           ENTRY                   ADDRESS         REF BY
           =====                   =======         ======
           Font8x8_char_51         000F3B0C 
    -------------------------------------------------------------------------
NEAR_CONST
  Relative segment, address: 000F3B16 - 000F3B1F (0xa bytes), align: 1
  Segment part 54.            Intra module refs:   Font8x8_table
           ENTRY                   ADDRESS         REF BY
           =====                   =======         ======
           Font8x8_char_52         000F3B16 
    -------------------------------------------------------------------------
NEAR_CONST
  Relative segment, address: 000F3B20 - 000F3B29 (0xa bytes), align: 1
  Segment part 55.            Intra module refs:   Font8x8_table
           ENTRY                   ADDRESS         REF BY
           =====                   =======         ======
           Font8x8_char_53         000F3B20 
    -------------------------------------------------------------------------
NEAR_CONST
  Relative segment, address: 000F3B2A - 000F3B33 (0xa bytes), align: 1
  Segment part 56.            Intra module refs:   Font8x8_table
           ENTRY                   ADDRESS         REF BY
           =====                   =======         ======
           Font8x8_char_54         000F3B2A 
    -------------------------------------------------------------------------
NEAR_CONST
  Relative segment, address: 000F3B34 - 000F3B3D (0xa bytes), align: 1
  Segment part 57.            Intra module refs:   Font8x8_table
           ENTRY                   ADDRESS         REF BY
           =====                   =======         ======
           Font8x8_char_55         000F3B34 
    -------------------------------------------------------------------------
NEAR_CONST
  Relative segment, address: 000F3B3E - 000F3B47 (0xa bytes), align: 1
  Segment part 58.            Intra module refs:   Font8x8_table
           ENTRY                   ADDRESS         REF BY
           =====                   =======         ======
           Font8x8_char_56         000F3B3E 
    -------------------------------------------------------------------------
NEAR_CONST
  Relative segment, address: 000F3B48 - 000F3B51 (0xa bytes), align: 1
  Segment part 59.            Intra module refs:   Font8x8_table
           ENTRY                   ADDRESS         REF BY
           =====                   =======         ======
           Font8x8_char_57         000F3B48 
    -------------------------------------------------------------------------
NEAR_CONST
  Relative segment, address: 000F3B52 - 000F3B5B (0xa bytes), align: 1
  Segment part 60.            Intra module refs:   Font8x8_table
           ENTRY                   ADDRESS         REF BY
           =====                   =======         ======
           Font8x8_char_58         000F3B52 
    -------------------------------------------------------------------------
NEAR_CONST
  Relative segment, address: 000F3B5C - 000F3B65 (0xa bytes), align: 1
  Segment part 61.            Intra module refs:   Font8x8_table
           ENTRY                   ADDRESS         REF BY
           =====                   =======         ======
           Font8x8_char_59         000F3B5C 
    -------------------------------------------------------------------------
NEAR_CONST
  Relative segment, address: 000F3B66 - 000F3B6F (0xa bytes), align: 1
  Segment part 62.            Intra module refs:   Font8x8_table
           ENTRY                   ADDRESS         REF BY
           =====                   =======         ======
           Font8x8_char_60         000F3B66 
    -------------------------------------------------------------------------
NEAR_CONST
  Relative segment, address: 000F3B70 - 000F3B79 (0xa bytes), align: 1
  Segment part 63.            Intra module refs:   Font8x8_table
           ENTRY                   ADDRESS         REF BY
           =====                   =======         ======
           Font8x8_char_61         000F3B70 
    -------------------------------------------------------------------------
NEAR_CONST
  Relative segment, address: 000F3B7A - 000F3B83 (0xa bytes), align: 1
  Segment part 64.            Intra module refs:   Font8x8_table
           ENTRY                   ADDRESS         REF BY
           =====                   =======         ======
           Font8x8_char_62         000F3B7A 
    -------------------------------------------------------------------------
NEAR_CONST
  Relative segment, address: 000F3B84 - 000F3B8D (0xa bytes), align: 1
  Segment part 65.            Intra module refs:   Font8x8_table
           ENTRY                   ADDRESS         REF BY
           =====                   =======         ======
           Font8x8_char_63         000F3B84 
    -------------------------------------------------------------------------
NEAR_CONST
  Relative segment, address: 000F3B8E - 000F3B97 (0xa bytes), align: 1
  Segment part 66.            Intra module refs:   Font8x8_table
           ENTRY                   ADDRESS         REF BY
           =====                   =======         ======
           Font8x8_char_64         000F3B8E 
    -------------------------------------------------------------------------
NEAR_CONST
  Relative segment, address: 000F3B98 - 000F3BA1 (0xa bytes), align: 1
  Segment part 67.            Intra module refs:   Font8x8_table
           ENTRY                   ADDRESS         REF BY
           =====                   =======         ======
           Font8x8_char_65         000F3B98 
    -------------------------------------------------------------------------
NEAR_CONST
  Relative segment, address: 000F3BA2 - 000F3BAB (0xa bytes), align: 1
  Segment part 68.            Intra module refs:   Font8x8_table
           ENTRY                   ADDRESS         REF BY
           =====                   =======         ======
           Font8x8_char_66         000F3BA2 
    -------------------------------------------------------------------------
NEAR_CONST
  Relative segment, address: 000F3BAC - 000F3BB5 (0xa bytes), align: 1
  Segment part 69.            Intra module refs:   Font8x8_table
           ENTRY                   ADDRESS         REF BY
           =====                   =======         ======
           Font8x8_char_67         000F3BAC 
    -------------------------------------------------------------------------
NEAR_CONST
  Relative segment, address: 000F3BB6 - 000F3BBF (0xa bytes), align: 1
  Segment part 70.            Intra module refs:   Font8x8_table
           ENTRY                   ADDRESS         REF BY
           =====                   =======         ======
           Font8x8_char_68         000F3BB6 
    -------------------------------------------------------------------------
NEAR_CONST
  Relative segment, address: 000F3BC0 - 000F3BC9 (0xa bytes), align: 1
  Segment part 71.            Intra module refs:   Font8x8_table
           ENTRY                   ADDRESS         REF BY
           =====                   =======         ======
           Font8x8_char_69         000F3BC0 
    -------------------------------------------------------------------------
NEAR_CONST
  Relative segment, address: 000F3BCA - 000F3BD3 (0xa bytes), align: 1
  Segment part 72.            Intra module refs:   Font8x8_table
           ENTRY                   ADDRESS         REF BY
           =====                   =======         ======
           Font8x8_char_70         000F3BCA 
    -------------------------------------------------------------------------
NEAR_CONST
  Relative segment, address: 000F3BD4 - 000F3BDD (0xa bytes), align: 1
  Segment part 73.            Intra module refs:   Font8x8_table
           ENTRY                   ADDRESS         REF BY
           =====                   =======         ======
           Font8x8_char_71         000F3BD4 
    -------------------------------------------------------------------------
NEAR_CONST
  Relative segment, address: 000F3BDE - 000F3BE7 (0xa bytes), align: 1
  Segment part 74.            Intra module refs:   Font8x8_table
           ENTRY                   ADDRESS         REF BY
           =====                   =======         ======
           Font8x8_char_72         000F3BDE 
    -------------------------------------------------------------------------
NEAR_CONST
  Relative segment, address: 000F3BE8 - 000F3BF1 (0xa bytes), align: 1
  Segment part 75.            Intra module refs:   Font8x8_table
           ENTRY                   ADDRESS         REF BY
           =====                   =======         ======
           Font8x8_char_73         000F3BE8 
    -------------------------------------------------------------------------
NEAR_CONST
  Relative segment, address: 000F3BF2 - 000F3BFB (0xa bytes), align: 1
  Segment part 76.            Intra module refs:   Font8x8_table
           ENTRY                   ADDRESS         REF BY
           =====                   =======         ======
           Font8x8_char_74         000F3BF2 
    -------------------------------------------------------------------------
NEAR_CONST
  Relative segment, address: 000F3BFC - 000F3C05 (0xa bytes), align: 1
  Segment part 77.            Intra module refs:   Font8x8_table
           ENTRY                   ADDRESS         REF BY
           =====                   =======         ======
           Font8x8_char_75         000F3BFC 
    -------------------------------------------------------------------------
NEAR_CONST
  Relative segment, address: 000F3C06 - 000F3C0F (0xa bytes), align: 1
  Segment part 78.            Intra module refs:   Font8x8_table
           ENTRY                   ADDRESS         REF BY
           =====                   =======         ======
           Font8x8_char_76         000F3C06 
    -------------------------------------------------------------------------
NEAR_CONST
  Relative segment, address: 000F3C10 - 000F3C19 (0xa bytes), align: 1
  Segment part 79.            Intra module refs:   Font8x8_table
           ENTRY                   ADDRESS         REF BY
           =====                   =======         ======
           Font8x8_char_77         000F3C10 
    -------------------------------------------------------------------------
NEAR_CONST
  Relative segment, address: 000F3C1A - 000F3C23 (0xa bytes), align: 1
  Segment part 80.            Intra module refs:   Font8x8_table
           ENTRY                   ADDRESS         REF BY
           =====                   =======         ======
           Font8x8_char_78         000F3C1A 
    -------------------------------------------------------------------------
NEAR_CONST
  Relative segment, address: 000F3C24 - 000F3C2D (0xa bytes), align: 1
  Segment part 81.            Intra module refs:   Font8x8_table
           ENTRY                   ADDRESS         REF BY
           =====                   =======         ======
           Font8x8_char_79         000F3C24 
    -------------------------------------------------------------------------
NEAR_CONST
  Relative segment, address: 000F3C2E - 000F3C37 (0xa bytes), align: 1
  Segment part 82.            Intra module refs:   Font8x8_table
           ENTRY                   ADDRESS         REF BY
           =====                   =======         ======
           Font8x8_char_80         000F3C2E 
    -------------------------------------------------------------------------
NEAR_CONST
  Relative segment, address: 000F3C38 - 000F3C41 (0xa bytes), align: 1
  Segment part 83.            Intra module refs:   Font8x8_table
           ENTRY                   ADDRESS         REF BY
           =====                   =======         ======
           Font8x8_char_81         000F3C38 
    -------------------------------------------------------------------------
NEAR_CONST
  Relative segment, address: 000F3C42 - 000F3C4B (0xa bytes), align: 1
  Segment part 84.            Intra module refs:   Font8x8_table
           ENTRY                   ADDRESS         REF BY
           =====                   =======         ======
           Font8x8_char_82         000F3C42 
    -------------------------------------------------------------------------
NEAR_CONST
  Relative segment, address: 000F3C4C - 000F3C55 (0xa bytes), align: 1
  Segment part 85.            Intra module refs:   Font8x8_table
           ENTRY                   ADDRESS         REF BY
           =====                   =======         ======
           Font8x8_char_83         000F3C4C 
    -------------------------------------------------------------------------
NEAR_CONST
  Relative segment, address: 000F3C56 - 000F3C5F (0xa bytes), align: 1
  Segment part 86.            Intra module refs:   Font8x8_table
           ENTRY                   ADDRESS         REF BY
           =====                   =======         ======
           Font8x8_char_84         000F3C56 
    -------------------------------------------------------------------------
NEAR_CONST
  Relative segment, address: 000F3C60 - 000F3C69 (0xa bytes), align: 1
  Segment part 87.            Intra module refs:   Font8x8_table
           ENTRY                   ADDRESS         REF BY
           =====                   =======         ======
           Font8x8_char_85         000F3C60 
    -------------------------------------------------------------------------
NEAR_CONST
  Relative segment, address: 000F3C6A - 000F3C73 (0xa bytes), align: 1
  Segment part 88.            Intra module refs:   Font8x8_table
           ENTRY                   ADDRESS         REF BY
           =====                   =======         ======
           Font8x8_char_86         000F3C6A 
    -------------------------------------------------------------------------
NEAR_CONST
  Relative segment, address: 000F3C74 - 000F3C7D (0xa bytes), align: 1
  Segment part 89.            Intra module refs:   Font8x8_table
           ENTRY                   ADDRESS         REF BY
           =====                   =======         ======
           Font8x8_char_87         000F3C74 
    -------------------------------------------------------------------------
NEAR_CONST
  Relative segment, address: 000F3C7E - 000F3C87 (0xa bytes), align: 1
  Segment part 90.            Intra module refs:   Font8x8_table
           ENTRY                   ADDRESS         REF BY
           =====                   =======         ======
           Font8x8_char_88         000F3C7E 
    -------------------------------------------------------------------------
NEAR_CONST
  Relative segment, address: 000F3C88 - 000F3C91 (0xa bytes), align: 1
  Segment part 91.            Intra module refs:   Font8x8_table
           ENTRY                   ADDRESS         REF BY
           =====                   =======         ======
           Font8x8_char_89         000F3C88 
    -------------------------------------------------------------------------
NEAR_CONST
  Relative segment, address: 000F3C92 - 000F3C9B (0xa bytes), align: 1
  Segment part 92.            Intra module refs:   Font8x8_table
           ENTRY                   ADDRESS         REF BY
           =====                   =======         ======
           Font8x8_char_90         000F3C92 
    -------------------------------------------------------------------------
NEAR_CONST
  Relative segment, address: 000F3C9C - 000F3CA5 (0xa bytes), align: 1
  Segment part 93.            Intra module refs:   Font8x8_table
           ENTRY                   ADDRESS         REF BY
           =====                   =======         ======
           Font8x8_char_91         000F3C9C 
    -------------------------------------------------------------------------
NEAR_CONST
  Relative segment, address: 000F3CA6 - 000F3CAF (0xa bytes), align: 1
  Segment part 94.            Intra module refs:   Font8x8_table
           ENTRY                   ADDRESS         REF BY
           =====                   =======         ======
           Font8x8_char_92         000F3CA6 
    -------------------------------------------------------------------------
NEAR_CONST
  Relative segment, address: 000F3CB0 - 000F3CB9 (0xa bytes), align: 1
  Segment part 95.            Intra module refs:   Font8x8_table
           ENTRY                   ADDRESS         REF BY
           =====                   =======         ======
           Font8x8_char_93         000F3CB0 
    -------------------------------------------------------------------------
NEAR_CONST
  Relative segment, address: 000F3CBA - 000F3CC3 (0xa bytes), align: 1
  Segment part 96.            Intra module refs:   Font8x8_table
           ENTRY                   ADDRESS         REF BY
           =====                   =======         ======
           Font8x8_char_94         000F3CBA 
    -------------------------------------------------------------------------
NEAR_CONST
  Relative segment, address: 000F3CC4 - 000F3CCD (0xa bytes), align: 1
  Segment part 97.            Intra module refs:   Font8x8_table
           ENTRY                   ADDRESS         REF BY
           =====                   =======         ======
           Font8x8_char_95         000F3CC4 
    -------------------------------------------------------------------------
NEAR_CONST
  Relative segment, address: 000F3CCE - 000F3CD7 (0xa bytes), align: 1
  Segment part 98.            Intra module refs:   Font8x8_table
           ENTRY                   ADDRESS         REF BY
           =====                   =======         ======
           Font8x8_char_96         000F3CCE 
    -------------------------------------------------------------------------
NEAR_CONST
  Relative segment, address: 000F3CD8 - 000F3CE1 (0xa bytes), align: 1
  Segment part 99.            Intra module refs:   Font8x8_table
           ENTRY                   ADDRESS         REF BY
           =====                   =======         ======
           Font8x8_char_97         000F3CD8 
    -------------------------------------------------------------------------
NEAR_CONST
  Relative segment, address: 000F3CE2 - 000F3CEB (0xa bytes), align: 1
  Segment part 100.           Intra module refs:   Font8x8_table
           ENTRY                   ADDRESS         REF BY
           =====                   =======         ======
           Font8x8_char_98         000F3CE2 
    -------------------------------------------------------------------------
NEAR_CONST
  Relative segment, address: 000F3CEC - 000F3CF5 (0xa bytes), align: 1
  Segment part 101.           Intra module refs:   Font8x8_table
           ENTRY                   ADDRESS         REF BY
           =====                   =======         ======
           Font8x8_char_99         000F3CEC 
    -------------------------------------------------------------------------
NEAR_CONST
  Relative segment, address: 000F3CF6 - 000F3CFF (0xa bytes), align: 1
  Segment part 102.           Intra module refs:   Font8x8_table
           ENTRY                   ADDRESS         REF BY
           =====                   =======         ======
           Font8x8_char_100        000F3CF6 
    -------------------------------------------------------------------------
NEAR_CONST
  Relative segment, address: 000F3D00 - 000F3D09 (0xa bytes), align: 1
  Segment part 103.           Intra module refs:   Font8x8_table
           ENTRY                   ADDRESS         REF BY
           =====                   =======         ======
           Font8x8_char_101        000F3D00 
    -------------------------------------------------------------------------
NEAR_CONST
  Relative segment, address: 000F3D0A - 000F3D13 (0xa bytes), align: 1
  Segment part 104.           Intra module refs:   Font8x8_table
           ENTRY                   ADDRESS         REF BY
           =====                   =======         ======
           Font8x8_char_102        000F3D0A 
    -------------------------------------------------------------------------
NEAR_CONST
  Relative segment, address: 000F3D14 - 000F3D1D (0xa bytes), align: 1
  Segment part 105.           Intra module refs:   Font8x8_table
           ENTRY                   ADDRESS         REF BY
           =====                   =======         ======
           Font8x8_char_103        000F3D14 
    -------------------------------------------------------------------------
NEAR_CONST
  Relative segment, address: 000F3D1E - 000F3D27 (0xa bytes), align: 1
  Segment part 106.           Intra module refs:   Font8x8_table
           ENTRY                   ADDRESS         REF BY
           =====                   =======         ======
           Font8x8_char_104        000F3D1E 
    -------------------------------------------------------------------------
NEAR_CONST
  Relative segment, address: 000F3D28 - 000F3D31 (0xa bytes), align: 1
  Segment part 107.           Intra module refs:   Font8x8_table
           ENTRY                   ADDRESS         REF BY
           =====                   =======         ======
           Font8x8_char_105        000F3D28 
    -------------------------------------------------------------------------
NEAR_CONST
  Relative segment, address: 000F3D32 - 000F3D3B (0xa bytes), align: 1
  Segment part 108.           Intra module refs:   Font8x8_table
           ENTRY                   ADDRESS         REF BY
           =====                   =======         ======
           Font8x8_char_106        000F3D32 
    -------------------------------------------------------------------------
NEAR_CONST
  Relative segment, address: 000F3D3C - 000F3D45 (0xa bytes), align: 1
  Segment part 109.           Intra module refs:   Font8x8_table
           ENTRY                   ADDRESS         REF BY
           =====                   =======         ======
           Font8x8_char_107        000F3D3C 
    -------------------------------------------------------------------------
NEAR_CONST
  Relative segment, address: 000F3D46 - 000F3D4F (0xa bytes), align: 1
  Segment part 110.           Intra module refs:   Font8x8_table
           ENTRY                   ADDRESS         REF BY
           =====                   =======         ======
           Font8x8_char_108        000F3D46 
    -------------------------------------------------------------------------
NEAR_CONST
  Relative segment, address: 000F3D50 - 000F3D59 (0xa bytes), align: 1
  Segment part 111.           Intra module refs:   Font8x8_table
           ENTRY                   ADDRESS         REF BY
           =====                   =======         ======
           Font8x8_char_109        000F3D50 
    -------------------------------------------------------------------------
NEAR_CONST
  Relative segment, address: 000F3D5A - 000F3D63 (0xa bytes), align: 1
  Segment part 112.           Intra module refs:   Font8x8_table
           ENTRY                   ADDRESS         REF BY
           =====                   =======         ======
           Font8x8_char_110        000F3D5A 
    -------------------------------------------------------------------------
NEAR_CONST
  Relative segment, address: 000F3D64 - 000F3D6D (0xa bytes), align: 1
  Segment part 113.           Intra module refs:   Font8x8_table
           ENTRY                   ADDRESS         REF BY
           =====                   =======         ======
           Font8x8_char_111        000F3D64 
    -------------------------------------------------------------------------
NEAR_CONST
  Relative segment, address: 000F3D6E - 000F3D77 (0xa bytes), align: 1
  Segment part 114.           Intra module refs:   Font8x8_table
           ENTRY                   ADDRESS         REF BY
           =====                   =======         ======
           Font8x8_char_112        000F3D6E 
    -------------------------------------------------------------------------
NEAR_CONST
  Relative segment, address: 000F3D78 - 000F3D81 (0xa bytes), align: 1
  Segment part 115.           Intra module refs:   Font8x8_table
           ENTRY                   ADDRESS         REF BY
           =====                   =======         ======
           Font8x8_char_113        000F3D78 
    -------------------------------------------------------------------------
NEAR_CONST
  Relative segment, address: 000F3D82 - 000F3D8B (0xa bytes), align: 1
  Segment part 116.           Intra module refs:   Font8x8_table
           ENTRY                   ADDRESS         REF BY
           =====                   =======         ======
           Font8x8_char_114        000F3D82 
    -------------------------------------------------------------------------
NEAR_CONST
  Relative segment, address: 000F3D8C - 000F3D95 (0xa bytes), align: 1
  Segment part 117.           Intra module refs:   Font8x8_table
           ENTRY                   ADDRESS         REF BY
           =====                   =======         ======
           Font8x8_char_115        000F3D8C 
    -------------------------------------------------------------------------
NEAR_CONST
  Relative segment, address: 000F3D96 - 000F3D9F (0xa bytes), align: 1
  Segment part 118.           Intra module refs:   Font8x8_table
           ENTRY                   ADDRESS         REF BY
           =====                   =======         ======
           Font8x8_char_116        000F3D96 
    -------------------------------------------------------------------------
NEAR_CONST
  Relative segment, address: 000F3DA0 - 000F3DA9 (0xa bytes), align: 1
  Segment part 119.           Intra module refs:   Font8x8_table
           ENTRY                   ADDRESS         REF BY
           =====                   =======         ======
           Font8x8_char_117        000F3DA0 
    -------------------------------------------------------------------------
NEAR_CONST
  Relative segment, address: 000F3DAA - 000F3DB3 (0xa bytes), align: 1
  Segment part 120.           Intra module refs:   Font8x8_table
           ENTRY                   ADDRESS         REF BY
           =====                   =======         ======
           Font8x8_char_118        000F3DAA 
    -------------------------------------------------------------------------
NEAR_CONST
  Relative segment, address: 000F3DB4 - 000F3DBD (0xa bytes), align: 1
  Segment part 121.           Intra module refs:   Font8x8_table
           ENTRY                   ADDRESS         REF BY
           =====                   =======         ======
           Font8x8_char_119        000F3DB4 
    -------------------------------------------------------------------------
NEAR_CONST
  Relative segment, address: 000F3DBE - 000F3DC7 (0xa bytes), align: 1
  Segment part 122.           Intra module refs:   Font8x8_table
           ENTRY                   ADDRESS         REF BY
           =====                   =======         ======
           Font8x8_char_120        000F3DBE 
    -------------------------------------------------------------------------
NEAR_CONST
  Relative segment, address: 000F3DC8 - 000F3DD1 (0xa bytes), align: 1
  Segment part 123.           Intra module refs:   Font8x8_table
           ENTRY                   ADDRESS         REF BY
           =====                   =======         ======
           Font8x8_char_121        000F3DC8 
    -------------------------------------------------------------------------
NEAR_CONST
  Relative segment, address: 000F3DD2 - 000F3DDB (0xa bytes), align: 1
  Segment part 124.           Intra module refs:   Font8x8_table
           ENTRY                   ADDRESS         REF BY
           =====                   =======         ======
           Font8x8_char_122        000F3DD2 
    -------------------------------------------------------------------------
NEAR_CONST
  Relative segment, address: 000F3DDC - 000F3DE5 (0xa bytes), align: 1
  Segment part 125.           Intra module refs:   Font8x8_table
           ENTRY                   ADDRESS         REF BY
           =====                   =======         ======
           Font8x8_char_123        000F3DDC 
    -------------------------------------------------------------------------
NEAR_CONST
  Relative segment, address: 000F3DE6 - 000F3DEF (0xa bytes), align: 1
  Segment part 126.           Intra module refs:   Font8x8_table
           ENTRY                   ADDRESS         REF BY
           =====                   =======         ======
           Font8x8_char_124        000F3DE6 
    -------------------------------------------------------------------------
NEAR_CONST
  Relative segment, address: 000F3DF0 - 000F3DF9 (0xa bytes), align: 1
  Segment part 127.           Intra module refs:   Font8x8_table
           ENTRY                   ADDRESS         REF BY
           =====                   =======         ======
           Font8x8_char_125        000F3DF0 
    -------------------------------------------------------------------------
NEAR_CONST
  Relative segment, address: 000F3DFA - 000F3E03 (0xa bytes), align: 1
  Segment part 128.           Intra module refs:   Font8x8_table
           ENTRY                   ADDRESS         REF BY
           =====                   =======         ======
           Font8x8_char_126        000F3DFA 
    -------------------------------------------------------------------------
NEAR_CONST
  Relative segment, address: 000F3E04 - 000F3E0D (0xa bytes), align: 1
  Segment part 129.           Intra module refs:   Font8x8_table
           ENTRY                   ADDRESS         REF BY
           =====                   =======         ======
           Font8x8_char_127        000F3E04 
    -------------------------------------------------------------------------
NEAR_CONST
  Relative segment, address: 000F3E0E - 000F3E17 (0xa bytes), align: 1
  Segment part 130.           Intra module refs:   Font8x8_table
           ENTRY                   ADDRESS         REF BY
           =====                   =======         ======
           Font8x8_char_128        000F3E0E 
    -------------------------------------------------------------------------
NEAR_CONST
  Relative segment, address: 000F3E18 - 000F3E21 (0xa bytes), align: 1
  Segment part 131.           Intra module refs:   Font8x8_table
           ENTRY                   ADDRESS         REF BY
           =====                   =======         ======
           Font8x8_char_129        000F3E18 
    -------------------------------------------------------------------------
NEAR_CONST
  Relative segment, address: 000F3E22 - 000F3E2B (0xa bytes), align: 1
  Segment part 132.           Intra module refs:   Font8x8_table
           ENTRY                   ADDRESS         REF BY
           =====                   =======         ======
           Font8x8_char_130        000F3E22 
    -------------------------------------------------------------------------
NEAR_CONST
  Relative segment, address: 000F3E2C - 000F3E35 (0xa bytes), align: 1
  Segment part 133.           Intra module refs:   Font8x8_table
           ENTRY                   ADDRESS         REF BY
           =====                   =======         ======
           Font8x8_char_131        000F3E2C 
    -------------------------------------------------------------------------
NEAR_CONST
  Relative segment, address: 000F3E36 - 000F3E3F (0xa bytes), align: 1
  Segment part 134.           Intra module refs:   Font8x8_table
           ENTRY                   ADDRESS         REF BY
           =====                   =======         ======
           Font8x8_char_132        000F3E36 
    -------------------------------------------------------------------------
NEAR_CONST
  Relative segment, address: 000F3E40 - 000F3E49 (0xa bytes), align: 1
  Segment part 135.           Intra module refs:   Font8x8_table
           ENTRY                   ADDRESS         REF BY
           =====                   =======         ======
           Font8x8_char_133        000F3E40 
    -------------------------------------------------------------------------
NEAR_CONST
  Relative segment, address: 000F3E4A - 000F3E53 (0xa bytes), align: 1
  Segment part 136.           Intra module refs:   Font8x8_table
           ENTRY                   ADDRESS         REF BY
           =====                   =======         ======
           Font8x8_char_134        000F3E4A 
    -------------------------------------------------------------------------
NEAR_CONST
  Relative segment, address: 000F3E54 - 000F3E5D (0xa bytes), align: 1
  Segment part 137.           Intra module refs:   Font8x8_table
           ENTRY                   ADDRESS         REF BY
           =====                   =======         ======
           Font8x8_char_135        000F3E54 
    -------------------------------------------------------------------------
NEAR_CONST
  Relative segment, address: 000F3E5E - 000F3E67 (0xa bytes), align: 1
  Segment part 138.           Intra module refs:   Font8x8_table
           ENTRY                   ADDRESS         REF BY
           =====                   =======         ======
           Font8x8_char_136        000F3E5E 
    -------------------------------------------------------------------------
NEAR_CONST
  Relative segment, address: 000F3E68 - 000F3E71 (0xa bytes), align: 1
  Segment part 139.           Intra module refs:   Font8x8_table
           ENTRY                   ADDRESS         REF BY
           =====                   =======         ======
           Font8x8_char_137        000F3E68 
    -------------------------------------------------------------------------
NEAR_CONST
  Relative segment, address: 000F3E72 - 000F3E7B (0xa bytes), align: 1
  Segment part 140.           Intra module refs:   Font8x8_table
           ENTRY                   ADDRESS         REF BY
           =====                   =======         ======
           Font8x8_char_138        000F3E72 
    -------------------------------------------------------------------------
NEAR_CONST
  Relative segment, address: 000F3E7C - 000F3E85 (0xa bytes), align: 1
  Segment part 141.           Intra module refs:   Font8x8_table
           ENTRY                   ADDRESS         REF BY
           =====                   =======         ======
           Font8x8_char_139        000F3E7C 
    -------------------------------------------------------------------------
NEAR_CONST
  Relative segment, address: 000F3E86 - 000F3E8F (0xa bytes), align: 1
  Segment part 142.           Intra module refs:   Font8x8_table
           ENTRY                   ADDRESS         REF BY
           =====                   =======         ======
           Font8x8_char_140        000F3E86 
    -------------------------------------------------------------------------
NEAR_CONST
  Relative segment, address: 000F3E90 - 000F3E99 (0xa bytes), align: 1
  Segment part 143.           Intra module refs:   Font8x8_table
           ENTRY                   ADDRESS         REF BY
           =====                   =======         ======
           Font8x8_char_141        000F3E90 
    -------------------------------------------------------------------------
NEAR_CONST
  Relative segment, address: 000F3E9A - 000F3EA3 (0xa bytes), align: 1
  Segment part 144.           Intra module refs:   Font8x8_table
           ENTRY                   ADDRESS         REF BY
           =====                   =======         ======
           Font8x8_char_142        000F3E9A 
    -------------------------------------------------------------------------
NEAR_CONST
  Relative segment, address: 000F3EA4 - 000F3EAD (0xa bytes), align: 1
  Segment part 145.           Intra module refs:   Font8x8_table
           ENTRY                   ADDRESS         REF BY
           =====                   =======         ======
           Font8x8_char_143        000F3EA4 
    -------------------------------------------------------------------------
NEAR_CONST
  Relative segment, address: 000F3EAE - 000F3EB7 (0xa bytes), align: 1
  Segment part 146.           Intra module refs:   Font8x8_table
           ENTRY                   ADDRESS         REF BY
           =====                   =======         ======
           Font8x8_char_144        000F3EAE 
    -------------------------------------------------------------------------
NEAR_CONST
  Relative segment, address: 000F3EB8 - 000F3EC1 (0xa bytes), align: 1
  Segment part 147.           Intra module refs:   Font8x8_table
           ENTRY                   ADDRESS         REF BY
           =====                   =======         ======
           Font8x8_char_145        000F3EB8 
    -------------------------------------------------------------------------
NEAR_CONST
  Relative segment, address: 000F3EC2 - 000F3ECB (0xa bytes), align: 1
  Segment part 148.           Intra module refs:   Font8x8_table
           ENTRY                   ADDRESS         REF BY
           =====                   =======         ======
           Font8x8_char_146        000F3EC2 
    -------------------------------------------------------------------------
NEAR_CONST
  Relative segment, address: 000F3ECC - 000F3ED5 (0xa bytes), align: 1
  Segment part 149.           Intra module refs:   Font8x8_table
           ENTRY                   ADDRESS         REF BY
           =====                   =======         ======
           Font8x8_char_147        000F3ECC 
    -------------------------------------------------------------------------
NEAR_CONST
  Relative segment, address: 000F3ED6 - 000F3EDF (0xa bytes), align: 1
  Segment part 150.           Intra module refs:   Font8x8_table
           ENTRY                   ADDRESS         REF BY
           =====                   =======         ======
           Font8x8_char_148        000F3ED6 
    -------------------------------------------------------------------------
NEAR_CONST
  Relative segment, address: 000F3EE0 - 000F3EE9 (0xa bytes), align: 1
  Segment part 151.           Intra module refs:   Font8x8_table
           ENTRY                   ADDRESS         REF BY
           =====                   =======         ======
           Font8x8_char_149        000F3EE0 
    -------------------------------------------------------------------------
NEAR_CONST
  Relative segment, address: 000F3EEA - 000F3EF3 (0xa bytes), align: 1
  Segment part 152.           Intra module refs:   Font8x8_table
           ENTRY                   ADDRESS         REF BY
           =====                   =======         ======
           Font8x8_char_150        000F3EEA 
    -------------------------------------------------------------------------
NEAR_CONST
  Relative segment, address: 000F3EF4 - 000F3EFD (0xa bytes), align: 1
  Segment part 153.           Intra module refs:   Font8x8_table
           ENTRY                   ADDRESS         REF BY
           =====                   =======         ======
           Font8x8_char_151        000F3EF4 
    -------------------------------------------------------------------------
NEAR_CONST
  Relative segment, address: 000F3EFE - 000F3F07 (0xa bytes), align: 1
  Segment part 154.           Intra module refs:   Font8x8_table
           ENTRY                   ADDRESS         REF BY
           =====                   =======         ======
           Font8x8_char_152        000F3EFE 
    -------------------------------------------------------------------------
NEAR_CONST
  Relative segment, address: 000F3F08 - 000F3F11 (0xa bytes), align: 1
  Segment part 155.           Intra module refs:   Font8x8_table
           ENTRY                   ADDRESS         REF BY
           =====                   =======         ======
           Font8x8_char_153        000F3F08 
    -------------------------------------------------------------------------
NEAR_CONST
  Relative segment, address: 000F3F12 - 000F3F1B (0xa bytes), align: 1
  Segment part 156.           Intra module refs:   Font8x8_table
           ENTRY                   ADDRESS         REF BY
           =====                   =======         ======
           Font8x8_char_154        000F3F12 
    -------------------------------------------------------------------------
NEAR_CONST
  Relative segment, address: 000F3F1C - 000F3F25 (0xa bytes), align: 1
  Segment part 157.           Intra module refs:   Font8x8_table
           ENTRY                   ADDRESS         REF BY
           =====                   =======         ======
           Font8x8_char_155        000F3F1C 
    -------------------------------------------------------------------------
NEAR_CONST
  Relative segment, address: 000F3F26 - 000F3F2F (0xa bytes), align: 1
  Segment part 158.           Intra module refs:   Font8x8_table
           ENTRY                   ADDRESS         REF BY
           =====                   =======         ======
           Font8x8_char_156        000F3F26 
    -------------------------------------------------------------------------
NEAR_CONST
  Relative segment, address: 000F3F30 - 000F3F39 (0xa bytes), align: 1
  Segment part 159.           Intra module refs:   Font8x8_table
           ENTRY                   ADDRESS         REF BY
           =====                   =======         ======
           Font8x8_char_157        000F3F30 
    -------------------------------------------------------------------------
NEAR_CONST
  Relative segment, address: 000F3F3A - 000F3F43 (0xa bytes), align: 1
  Segment part 160.           Intra module refs:   Font8x8_table
           ENTRY                   ADDRESS         REF BY
           =====                   =======         ======
           Font8x8_char_158        000F3F3A 
    -------------------------------------------------------------------------
NEAR_CONST
  Relative segment, address: 000F3F44 - 000F3F4D (0xa bytes), align: 1
  Segment part 161.           Intra module refs:   Font8x8_table
           ENTRY                   ADDRESS         REF BY
           =====                   =======         ======
           Font8x8_char_159        000F3F44 
    -------------------------------------------------------------------------
NEAR_CONST
  Relative segment, address: 000F3F4E - 000F3F57 (0xa bytes), align: 1
  Segment part 162.           Intra module refs:   Font8x8_table
           ENTRY                   ADDRESS         REF BY
           =====                   =======         ======
           Font8x8_char_160        000F3F4E 
    -------------------------------------------------------------------------
NEAR_CONST
  Relative segment, address: 000F3F58 - 000F3F61 (0xa bytes), align: 1
  Segment part 163.           Intra module refs:   Font8x8_table
           ENTRY                   ADDRESS         REF BY
           =====                   =======         ======
           Font8x8_char_161        000F3F58 
    -------------------------------------------------------------------------
NEAR_CONST
  Relative segment, address: 000F3F62 - 000F3F6B (0xa bytes), align: 1
  Segment part 164.           Intra module refs:   Font8x8_table
           ENTRY                   ADDRESS         REF BY
           =====                   =======         ======
           Font8x8_char_162        000F3F62 
    -------------------------------------------------------------------------
NEAR_CONST
  Relative segment, address: 000F3F6C - 000F3F75 (0xa bytes), align: 1
  Segment part 165.           Intra module refs:   Font8x8_table
           ENTRY                   ADDRESS         REF BY
           =====                   =======         ======
           Font8x8_char_163        000F3F6C 
    -------------------------------------------------------------------------
NEAR_CONST
  Relative segment, address: 000F3F76 - 000F3F7F (0xa bytes), align: 1
  Segment part 166.           Intra module refs:   Font8x8_table
           ENTRY                   ADDRESS         REF BY
           =====                   =======         ======
           Font8x8_char_164        000F3F76 
    -------------------------------------------------------------------------
NEAR_CONST
  Relative segment, address: 000F3F80 - 000F3F89 (0xa bytes), align: 1
  Segment part 167.           Intra module refs:   Font8x8_table
           ENTRY                   ADDRESS         REF BY
           =====                   =======         ======
           Font8x8_char_165        000F3F80 
    -------------------------------------------------------------------------
NEAR_CONST
  Relative segment, address: 000F3F8A - 000F3F93 (0xa bytes), align: 1
  Segment part 168.           Intra module refs:   Font8x8_table
           ENTRY                   ADDRESS         REF BY
           =====                   =======         ======
           Font8x8_char_166        000F3F8A 
    -------------------------------------------------------------------------
NEAR_CONST
  Relative segment, address: 000F3F94 - 000F3F9D (0xa bytes), align: 1
  Segment part 169.           Intra module refs:   Font8x8_table
           ENTRY                   ADDRESS         REF BY
           =====                   =======         ======
           Font8x8_char_167        000F3F94 
    -------------------------------------------------------------------------
NEAR_CONST
  Relative segment, address: 000F3F9E - 000F3FA7 (0xa bytes), align: 1
  Segment part 170.           Intra module refs:   Font8x8_table
           ENTRY                   ADDRESS         REF BY
           =====                   =======         ======
           Font8x8_char_168        000F3F9E 
    -------------------------------------------------------------------------
NEAR_CONST
  Relative segment, address: 000F3FA8 - 000F3FB1 (0xa bytes), align: 1
  Segment part 171.           Intra module refs:   Font8x8_table
           ENTRY                   ADDRESS         REF BY
           =====                   =======         ======
           Font8x8_char_169        000F3FA8 
    -------------------------------------------------------------------------
NEAR_CONST
  Relative segment, address: 000F3FB2 - 000F3FBB (0xa bytes), align: 1
  Segment part 172.           Intra module refs:   Font8x8_table
           ENTRY                   ADDRESS         REF BY
           =====                   =======         ======
           Font8x8_char_170        000F3FB2 
    -------------------------------------------------------------------------
NEAR_CONST
  Relative segment, address: 000F3FBC - 000F3FC5 (0xa bytes), align: 1
  Segment part 173.           Intra module refs:   Font8x8_table
           ENTRY                   ADDRESS         REF BY
           =====                   =======         ======
           Font8x8_char_171        000F3FBC 
    -------------------------------------------------------------------------
NEAR_CONST
  Relative segment, address: 000F3FC6 - 000F3FCF (0xa bytes), align: 1
  Segment part 174.           Intra module refs:   Font8x8_table
           ENTRY                   ADDRESS         REF BY
           =====                   =======         ======
           Font8x8_char_172        000F3FC6 
    -------------------------------------------------------------------------
NEAR_CONST
  Relative segment, address: 000F3FD0 - 000F3FD9 (0xa bytes), align: 1
  Segment part 175.           Intra module refs:   Font8x8_table
           ENTRY                   ADDRESS         REF BY
           =====                   =======         ======
           Font8x8_char_173        000F3FD0 
    -------------------------------------------------------------------------
NEAR_CONST
  Relative segment, address: 000F3FDA - 000F3FE3 (0xa bytes), align: 1
  Segment part 176.           Intra module refs:   Font8x8_table
           ENTRY                   ADDRESS         REF BY
           =====                   =======         ======
           Font8x8_char_174        000F3FDA 
    -------------------------------------------------------------------------
NEAR_CONST
  Relative segment, address: 000F3FE4 - 000F3FED (0xa bytes), align: 1
  Segment part 177.           Intra module refs:   Font8x8_table
           ENTRY                   ADDRESS         REF BY
           =====                   =======         ======
           Font8x8_char_175        000F3FE4 
    -------------------------------------------------------------------------
NEAR_CONST
  Relative segment, address: 000F3FEE - 000F3FF7 (0xa bytes), align: 1
  Segment part 178.           Intra module refs:   Font8x8_table
           ENTRY                   ADDRESS         REF BY
           =====                   =======         ======
           Font8x8_char_176        000F3FEE 
    -------------------------------------------------------------------------
NEAR_CONST
  Relative segment, address: 000F3FF8 - 000F4001 (0xa bytes), align: 1
  Segment part 179.           Intra module refs:   Font8x8_table
           ENTRY                   ADDRESS         REF BY
           =====                   =======         ======
           Font8x8_char_177        000F3FF8 
    -------------------------------------------------------------------------
NEAR_CONST
  Relative segment, address: 000F4002 - 000F400B (0xa bytes), align: 1
  Segment part 180.           Intra module refs:   Font8x8_table
           ENTRY                   ADDRESS         REF BY
           =====                   =======         ======
           Font8x8_char_178        000F4002 
    -------------------------------------------------------------------------
NEAR_CONST
  Relative segment, address: 000F400C - 000F4015 (0xa bytes), align: 1
  Segment part 181.           Intra module refs:   Font8x8_table
           ENTRY                   ADDRESS         REF BY
           =====                   =======         ======
           Font8x8_char_179        000F400C 
    -------------------------------------------------------------------------
NEAR_CONST
  Relative segment, address: 000F4016 - 000F401F (0xa bytes), align: 1
  Segment part 182.           Intra module refs:   Font8x8_table
           ENTRY                   ADDRESS         REF BY
           =====                   =======         ======
           Font8x8_char_180        000F4016 
    -------------------------------------------------------------------------
NEAR_CONST
  Relative segment, address: 000F4020 - 000F4029 (0xa bytes), align: 1
  Segment part 183.           Intra module refs:   Font8x8_table
           ENTRY                   ADDRESS         REF BY
           =====                   =======         ======
           Font8x8_char_181        000F4020 
    -------------------------------------------------------------------------
NEAR_CONST
  Relative segment, address: 000F402A - 000F4033 (0xa bytes), align: 1
  Segment part 184.           Intra module refs:   Font8x8_table
           ENTRY                   ADDRESS         REF BY
           =====                   =======         ======
           Font8x8_char_182        000F402A 
    -------------------------------------------------------------------------
NEAR_CONST
  Relative segment, address: 000F4034 - 000F403D (0xa bytes), align: 1
  Segment part 185.           Intra module refs:   Font8x8_table
           ENTRY                   ADDRESS         REF BY
           =====                   =======         ======
           Font8x8_char_183        000F4034 
    -------------------------------------------------------------------------
NEAR_CONST
  Relative segment, address: 000F403E - 000F4047 (0xa bytes), align: 1
  Segment part 186.           Intra module refs:   Font8x8_table
           ENTRY                   ADDRESS         REF BY
           =====                   =======         ======
           Font8x8_char_184        000F403E 
    -------------------------------------------------------------------------
NEAR_CONST
  Relative segment, address: 000F4048 - 000F4051 (0xa bytes), align: 1
  Segment part 187.           Intra module refs:   Font8x8_table
           ENTRY                   ADDRESS         REF BY
           =====                   =======         ======
           Font8x8_char_185        000F4048 
    -------------------------------------------------------------------------
NEAR_CONST
  Relative segment, address: 000F4052 - 000F405B (0xa bytes), align: 1
  Segment part 188.           Intra module refs:   Font8x8_table
           ENTRY                   ADDRESS         REF BY
           =====                   =======         ======
           Font8x8_char_186        000F4052 
    -------------------------------------------------------------------------
NEAR_CONST
  Relative segment, address: 000F405C - 000F4065 (0xa bytes), align: 1
  Segment part 189.           Intra module refs:   Font8x8_table
           ENTRY                   ADDRESS         REF BY
           =====                   =======         ======
           Font8x8_char_187        000F405C 
    -------------------------------------------------------------------------
NEAR_CONST
  Relative segment, address: 000F4066 - 000F406F (0xa bytes), align: 1
  Segment part 190.           Intra module refs:   Font8x8_table
           ENTRY                   ADDRESS         REF BY
           =====                   =======         ======
           Font8x8_char_188        000F4066 
    -------------------------------------------------------------------------
NEAR_CONST
  Relative segment, address: 000F4070 - 000F4079 (0xa bytes), align: 1
  Segment part 191.           Intra module refs:   Font8x8_table
           ENTRY                   ADDRESS         REF BY
           =====                   =======         ======
           Font8x8_char_189        000F4070 
    -------------------------------------------------------------------------
NEAR_CONST
  Relative segment, address: 000F407A - 000F4083 (0xa bytes), align: 1
  Segment part 192.           Intra module refs:   Font8x8_table
           ENTRY                   ADDRESS         REF BY
           =====                   =======         ======
           Font8x8_char_190        000F407A 
    -------------------------------------------------------------------------
NEAR_CONST
  Relative segment, address: 000F4084 - 000F408D (0xa bytes), align: 1
  Segment part 193.           Intra module refs:   Font8x8_table
           ENTRY                   ADDRESS         REF BY
           =====                   =======         ======
           Font8x8_char_191        000F4084 
    -------------------------------------------------------------------------
NEAR_CONST
  Relative segment, address: 000F408E - 000F4097 (0xa bytes), align: 1
  Segment part 194.           Intra module refs:   Font8x8_table
           ENTRY                   ADDRESS         REF BY
           =====                   =======         ======
           Font8x8_char_192        000F408E 
    -------------------------------------------------------------------------
NEAR_CONST
  Relative segment, address: 000F4098 - 000F40A1 (0xa bytes), align: 1
  Segment part 195.           Intra module refs:   Font8x8_table
           ENTRY                   ADDRESS         REF BY
           =====                   =======         ======
           Font8x8_char_193        000F4098 
    -------------------------------------------------------------------------
NEAR_CONST
  Relative segment, address: 000F40A2 - 000F40AB (0xa bytes), align: 1
  Segment part 196.           Intra module refs:   Font8x8_table
           ENTRY                   ADDRESS         REF BY
           =====                   =======         ======
           Font8x8_char_194        000F40A2 
    -------------------------------------------------------------------------
NEAR_CONST
  Relative segment, address: 000F40AC - 000F40B5 (0xa bytes), align: 1
  Segment part 197.           Intra module refs:   Font8x8_table
           ENTRY                   ADDRESS         REF BY
           =====                   =======         ======
           Font8x8_char_195        000F40AC 
    -------------------------------------------------------------------------
NEAR_CONST
  Relative segment, address: 000F40B6 - 000F40BF (0xa bytes), align: 1
  Segment part 198.           Intra module refs:   Font8x8_table
           ENTRY                   ADDRESS         REF BY
           =====                   =======         ======
           Font8x8_char_196        000F40B6 
    -------------------------------------------------------------------------
NEAR_CONST
  Relative segment, address: 000F40C0 - 000F40C9 (0xa bytes), align: 1
  Segment part 199.           Intra module refs:   Font8x8_table
           ENTRY                   ADDRESS         REF BY
           =====                   =======         ======
           Font8x8_char_197        000F40C0 
    -------------------------------------------------------------------------
NEAR_CONST
  Relative segment, address: 000F40CA - 000F40D3 (0xa bytes), align: 1
  Segment part 200.           Intra module refs:   Font8x8_table
           ENTRY                   ADDRESS         REF BY
           =====                   =======         ======
           Font8x8_char_198        000F40CA 
    -------------------------------------------------------------------------
NEAR_CONST
  Relative segment, address: 000F40D4 - 000F40DD (0xa bytes), align: 1
  Segment part 201.           Intra module refs:   Font8x8_table
           ENTRY                   ADDRESS         REF BY
           =====                   =======         ======
           Font8x8_char_199        000F40D4 
    -------------------------------------------------------------------------
NEAR_CONST
  Relative segment, address: 000F40DE - 000F40E7 (0xa bytes), align: 1
  Segment part 202.           Intra module refs:   Font8x8_table
           ENTRY                   ADDRESS         REF BY
           =====                   =======         ======
           Font8x8_char_200        000F40DE 
    -------------------------------------------------------------------------
NEAR_CONST
  Relative segment, address: 000F40E8 - 000F40F1 (0xa bytes), align: 1
  Segment part 203.           Intra module refs:   Font8x8_table
           ENTRY                   ADDRESS         REF BY
           =====                   =======         ======
           Font8x8_char_201        000F40E8 
    -------------------------------------------------------------------------
NEAR_CONST
  Relative segment, address: 000F40F2 - 000F40FB (0xa bytes), align: 1
  Segment part 204.           Intra module refs:   Font8x8_table
           ENTRY                   ADDRESS         REF BY
           =====                   =======         ======
           Font8x8_char_202        000F40F2 
    -------------------------------------------------------------------------
NEAR_CONST
  Relative segment, address: 000F40FC - 000F4105 (0xa bytes), align: 1
  Segment part 205.           Intra module refs:   Font8x8_table
           ENTRY                   ADDRESS         REF BY
           =====                   =======         ======
           Font8x8_char_203        000F40FC 
    -------------------------------------------------------------------------
NEAR_CONST
  Relative segment, address: 000F4106 - 000F410F (0xa bytes), align: 1
  Segment part 206.           Intra module refs:   Font8x8_table
           ENTRY                   ADDRESS         REF BY
           =====                   =======         ======
           Font8x8_char_204        000F4106 
    -------------------------------------------------------------------------
NEAR_CONST
  Relative segment, address: 000F4110 - 000F4119 (0xa bytes), align: 1
  Segment part 207.           Intra module refs:   Font8x8_table
           ENTRY                   ADDRESS         REF BY
           =====                   =======         ======
           Font8x8_char_205        000F4110 
    -------------------------------------------------------------------------
NEAR_CONST
  Relative segment, address: 000F411A - 000F4123 (0xa bytes), align: 1
  Segment part 208.           Intra module refs:   Font8x8_table
           ENTRY                   ADDRESS         REF BY
           =====                   =======         ======
           Font8x8_char_206        000F411A 
    -------------------------------------------------------------------------
NEAR_CONST
  Relative segment, address: 000F4124 - 000F412D (0xa bytes), align: 1
  Segment part 209.           Intra module refs:   Font8x8_table
           ENTRY                   ADDRESS         REF BY
           =====                   =======         ======
           Font8x8_char_207        000F4124 
    -------------------------------------------------------------------------
NEAR_CONST
  Relative segment, address: 000F412E - 000F4137 (0xa bytes), align: 1
  Segment part 210.           Intra module refs:   Font8x8_table
           ENTRY                   ADDRESS         REF BY
           =====                   =======         ======
           Font8x8_char_208        000F412E 
    -------------------------------------------------------------------------
NEAR_CONST
  Relative segment, address: 000F4138 - 000F4141 (0xa bytes), align: 1
  Segment part 211.           Intra module refs:   Font8x8_table
           ENTRY                   ADDRESS         REF BY
           =====                   =======         ======
           Font8x8_char_209        000F4138 
    -------------------------------------------------------------------------
NEAR_CONST
  Relative segment, address: 000F4142 - 000F414B (0xa bytes), align: 1
  Segment part 212.           Intra module refs:   Font8x8_table
           ENTRY                   ADDRESS         REF BY
           =====                   =======         ======
           Font8x8_char_210        000F4142 
    -------------------------------------------------------------------------
NEAR_CONST
  Relative segment, address: 000F414C - 000F4155 (0xa bytes), align: 1
  Segment part 213.           Intra module refs:   Font8x8_table
           ENTRY                   ADDRESS         REF BY
           =====                   =======         ======
           Font8x8_char_211        000F414C 
    -------------------------------------------------------------------------
NEAR_CONST
  Relative segment, address: 000F4156 - 000F415F (0xa bytes), align: 1
  Segment part 214.           Intra module refs:   Font8x8_table
           ENTRY                   ADDRESS         REF BY
           =====                   =======         ======
           Font8x8_char_212        000F4156 
    -------------------------------------------------------------------------
NEAR_CONST
  Relative segment, address: 000F4160 - 000F4169 (0xa bytes), align: 1
  Segment part 215.           Intra module refs:   Font8x8_table
           ENTRY                   ADDRESS         REF BY
           =====                   =======         ======
           Font8x8_char_213        000F4160 
    -------------------------------------------------------------------------
NEAR_CONST
  Relative segment, address: 000F416A - 000F4173 (0xa bytes), align: 1
  Segment part 216.           Intra module refs:   Font8x8_table
           ENTRY                   ADDRESS         REF BY
           =====                   =======         ======
           Font8x8_char_214        000F416A 
    -------------------------------------------------------------------------
NEAR_CONST
  Relative segment, address: 000F4174 - 000F417D (0xa bytes), align: 1
  Segment part 217.           Intra module refs:   Font8x8_table
           ENTRY                   ADDRESS         REF BY
           =====                   =======         ======
           Font8x8_char_215        000F4174 
    -------------------------------------------------------------------------
NEAR_CONST
  Relative segment, address: 000F417E - 000F4187 (0xa bytes), align: 1
  Segment part 218.           Intra module refs:   Font8x8_table
           ENTRY                   ADDRESS         REF BY
           =====                   =======         ======
           Font8x8_char_216        000F417E 
    -------------------------------------------------------------------------
NEAR_CONST
  Relative segment, address: 000F4188 - 000F4191 (0xa bytes), align: 1
  Segment part 219.           Intra module refs:   Font8x8_table
           ENTRY                   ADDRESS         REF BY
           =====                   =======         ======
           Font8x8_char_217        000F4188 
    -------------------------------------------------------------------------
NEAR_CONST
  Relative segment, address: 000F4192 - 000F419B (0xa bytes), align: 1
  Segment part 220.           Intra module refs:   Font8x8_table
           ENTRY                   ADDRESS         REF BY
           =====                   =======         ======
           Font8x8_char_218        000F4192 
    -------------------------------------------------------------------------
NEAR_CONST
  Relative segment, address: 000F419C - 000F41A5 (0xa bytes), align: 1
  Segment part 221.           Intra module refs:   Font8x8_table
           ENTRY                   ADDRESS         REF BY
           =====                   =======         ======
           Font8x8_char_219        000F419C 
    -------------------------------------------------------------------------
NEAR_CONST
  Relative segment, address: 000F41A6 - 000F41AF (0xa bytes), align: 1
  Segment part 222.           Intra module refs:   Font8x8_table
           ENTRY                   ADDRESS         REF BY
           =====                   =======         ======
           Font8x8_char_220        000F41A6 
    -------------------------------------------------------------------------
NEAR_CONST
  Relative segment, address: 000F41B0 - 000F41B9 (0xa bytes), align: 1
  Segment part 223.           Intra module refs:   Font8x8_table
           ENTRY                   ADDRESS         REF BY
           =====                   =======         ======
           Font8x8_char_221        000F41B0 
    -------------------------------------------------------------------------
NEAR_CONST
  Relative segment, address: 000F41BA - 000F41C3 (0xa bytes), align: 1
  Segment part 224.           Intra module refs:   Font8x8_table
           ENTRY                   ADDRESS         REF BY
           =====                   =======         ======
           Font8x8_char_222        000F41BA 
    -------------------------------------------------------------------------
NEAR_CONST
  Relative segment, address: 000F41C4 - 000F41CD (0xa bytes), align: 1
  Segment part 225.           Intra module refs:   Font8x8_table
           ENTRY                   ADDRESS         REF BY
           =====                   =======         ======
           Font8x8_char_223        000F41C4 
    -------------------------------------------------------------------------
NEAR_CONST
  Relative segment, address: 000F41CE - 000F41D7 (0xa bytes), align: 1
  Segment part 226.           Intra module refs:   Font8x8_table
           ENTRY                   ADDRESS         REF BY
           =====                   =======         ======
           Font8x8_char_224        000F41CE 
    -------------------------------------------------------------------------
NEAR_CONST
  Relative segment, address: 000F41D8 - 000F41E1 (0xa bytes), align: 1
  Segment part 227.           Intra module refs:   Font8x8_table
           ENTRY                   ADDRESS         REF BY
           =====                   =======         ======
           Font8x8_char_225        000F41D8 
    -------------------------------------------------------------------------
NEAR_CONST
  Relative segment, address: 000F41E2 - 000F41EB (0xa bytes), align: 1
  Segment part 228.           Intra module refs:   Font8x8_table
           ENTRY                   ADDRESS         REF BY
           =====                   =======         ======
           Font8x8_char_226        000F41E2 
    -------------------------------------------------------------------------
NEAR_CONST
  Relative segment, address: 000F41EC - 000F41F5 (0xa bytes), align: 1
  Segment part 229.           Intra module refs:   Font8x8_table
           ENTRY                   ADDRESS         REF BY
           =====                   =======         ======
           Font8x8_char_227        000F41EC 
    -------------------------------------------------------------------------
NEAR_CONST
  Relative segment, address: 000F41F6 - 000F41FF (0xa bytes), align: 1
  Segment part 230.           Intra module refs:   Font8x8_table
           ENTRY                   ADDRESS         REF BY
           =====                   =======         ======
           Font8x8_char_228        000F41F6 
    -------------------------------------------------------------------------
NEAR_CONST
  Relative segment, address: 000F4200 - 000F4209 (0xa bytes), align: 1
  Segment part 231.           Intra module refs:   Font8x8_table
           ENTRY                   ADDRESS         REF BY
           =====                   =======         ======
           Font8x8_char_229        000F4200 
    -------------------------------------------------------------------------
NEAR_CONST
  Relative segment, address: 000F420A - 000F4213 (0xa bytes), align: 1
  Segment part 232.           Intra module refs:   Font8x8_table
           ENTRY                   ADDRESS         REF BY
           =====                   =======         ======
           Font8x8_char_230        000F420A 
    -------------------------------------------------------------------------
NEAR_CONST
  Relative segment, address: 000F4214 - 000F421D (0xa bytes), align: 1
  Segment part 233.           Intra module refs:   Font8x8_table
           ENTRY                   ADDRESS         REF BY
           =====                   =======         ======
           Font8x8_char_231        000F4214 
    -------------------------------------------------------------------------
NEAR_CONST
  Relative segment, address: 000F421E - 000F4227 (0xa bytes), align: 1
  Segment part 234.           Intra module refs:   Font8x8_table
           ENTRY                   ADDRESS         REF BY
           =====                   =======         ======
           Font8x8_char_232        000F421E 
    -------------------------------------------------------------------------
NEAR_CONST
  Relative segment, address: 000F4228 - 000F4231 (0xa bytes), align: 1
  Segment part 235.           Intra module refs:   Font8x8_table
           ENTRY                   ADDRESS         REF BY
           =====                   =======         ======
           Font8x8_char_233        000F4228 
    -------------------------------------------------------------------------
NEAR_CONST
  Relative segment, address: 000F4232 - 000F423B (0xa bytes), align: 1
  Segment part 236.           Intra module refs:   Font8x8_table
           ENTRY                   ADDRESS         REF BY
           =====                   =======         ======
           Font8x8_char_234        000F4232 
    -------------------------------------------------------------------------
NEAR_CONST
  Relative segment, address: 000F423C - 000F4245 (0xa bytes), align: 1
  Segment part 237.           Intra module refs:   Font8x8_table
           ENTRY                   ADDRESS         REF BY
           =====                   =======         ======
           Font8x8_char_235        000F423C 
    -------------------------------------------------------------------------
NEAR_CONST
  Relative segment, address: 000F4246 - 000F424F (0xa bytes), align: 1
  Segment part 238.           Intra module refs:   Font8x8_table
           ENTRY                   ADDRESS         REF BY
           =====                   =======         ======
           Font8x8_char_236        000F4246 
    -------------------------------------------------------------------------
NEAR_CONST
  Relative segment, address: 000F4250 - 000F4259 (0xa bytes), align: 1
  Segment part 239.           Intra module refs:   Font8x8_table
           ENTRY                   ADDRESS         REF BY
           =====                   =======         ======
           Font8x8_char_237        000F4250 
    -------------------------------------------------------------------------
NEAR_CONST
  Relative segment, address: 000F425A - 000F4263 (0xa bytes), align: 1
  Segment part 240.           Intra module refs:   Font8x8_table
           ENTRY                   ADDRESS         REF BY
           =====                   =======         ======
           Font8x8_char_238        000F425A 
    -------------------------------------------------------------------------
NEAR_CONST
  Relative segment, address: 000F4264 - 000F426D (0xa bytes), align: 1
  Segment part 241.           Intra module refs:   Font8x8_table
           ENTRY                   ADDRESS         REF BY
           =====                   =======         ======
           Font8x8_char_239        000F4264 
    -------------------------------------------------------------------------
NEAR_CONST
  Relative segment, address: 000F426E - 000F4277 (0xa bytes), align: 1
  Segment part 242.           Intra module refs:   Font8x8_table
           ENTRY                   ADDRESS         REF BY
           =====                   =======         ======
           Font8x8_char_240        000F426E 
    -------------------------------------------------------------------------
NEAR_CONST
  Relative segment, address: 000F4278 - 000F4281 (0xa bytes), align: 1
  Segment part 243.           Intra module refs:   Font8x8_table
           ENTRY                   ADDRESS         REF BY
           =====                   =======         ======
           Font8x8_char_241        000F4278 
    -------------------------------------------------------------------------
NEAR_CONST
  Relative segment, address: 000F4282 - 000F428B (0xa bytes), align: 1
  Segment part 244.           Intra module refs:   Font8x8_table
           ENTRY                   ADDRESS         REF BY
           =====                   =======         ======
           Font8x8_char_242        000F4282 
    -------------------------------------------------------------------------
NEAR_CONST
  Relative segment, address: 000F428C - 000F4295 (0xa bytes), align: 1
  Segment part 245.           Intra module refs:   Font8x8_table
           ENTRY                   ADDRESS         REF BY
           =====                   =======         ======
           Font8x8_char_243        000F428C 
    -------------------------------------------------------------------------
NEAR_CONST
  Relative segment, address: 000F4296 - 000F429F (0xa bytes), align: 1
  Segment part 246.           Intra module refs:   Font8x8_table
           ENTRY                   ADDRESS         REF BY
           =====                   =======         ======
           Font8x8_char_244        000F4296 
    -------------------------------------------------------------------------
NEAR_CONST
  Relative segment, address: 000F42A0 - 000F42A9 (0xa bytes), align: 1
  Segment part 247.           Intra module refs:   Font8x8_table
           ENTRY                   ADDRESS         REF BY
           =====                   =======         ======
           Font8x8_char_245        000F42A0 
    -------------------------------------------------------------------------
NEAR_CONST
  Relative segment, address: 000F42AA - 000F42B3 (0xa bytes), align: 1
  Segment part 248.           Intra module refs:   Font8x8_table
           ENTRY                   ADDRESS         REF BY
           =====                   =======         ======
           Font8x8_char_246        000F42AA 
    -------------------------------------------------------------------------
NEAR_CONST
  Relative segment, address: 000F42B4 - 000F42BD (0xa bytes), align: 1
  Segment part 249.           Intra module refs:   Font8x8_table
           ENTRY                   ADDRESS         REF BY
           =====                   =======         ======
           Font8x8_char_247        000F42B4 
    -------------------------------------------------------------------------
NEAR_CONST
  Relative segment, address: 000F42BE - 000F42C7 (0xa bytes), align: 1
  Segment part 250.           Intra module refs:   Font8x8_table
           ENTRY                   ADDRESS         REF BY
           =====                   =======         ======
           Font8x8_char_248        000F42BE 
    -------------------------------------------------------------------------
NEAR_CONST
  Relative segment, address: 000F42C8 - 000F42D1 (0xa bytes), align: 1
  Segment part 251.           Intra module refs:   Font8x8_table
           ENTRY                   ADDRESS         REF BY
           =====                   =======         ======
           Font8x8_char_249        000F42C8 
    -------------------------------------------------------------------------
NEAR_CONST
  Relative segment, address: 000F42D2 - 000F42DB (0xa bytes), align: 1
  Segment part 252.           Intra module refs:   Font8x8_table
           ENTRY                   ADDRESS         REF BY
           =====                   =======         ======
           Font8x8_char_250        000F42D2 
    -------------------------------------------------------------------------
NEAR_CONST
  Relative segment, address: 000F42DC - 000F42E5 (0xa bytes), align: 1
  Segment part 253.           Intra module refs:   Font8x8_table
           ENTRY                   ADDRESS         REF BY
           =====                   =======         ======
           Font8x8_char_251        000F42DC 
    -------------------------------------------------------------------------
NEAR_CONST
  Relative segment, address: 000F42E6 - 000F42EF (0xa bytes), align: 1
  Segment part 254.           Intra module refs:   Font8x8_table
           ENTRY                   ADDRESS         REF BY
           =====                   =======         ======
           Font8x8_char_252        000F42E6 
    -------------------------------------------------------------------------
NEAR_CONST
  Relative segment, address: 000F42F0 - 000F42F9 (0xa bytes), align: 1
  Segment part 255.           Intra module refs:   Font8x8_table
           ENTRY                   ADDRESS         REF BY
           =====                   =======         ======
           Font8x8_char_253        000F42F0 
    -------------------------------------------------------------------------
NEAR_CONST
  Relative segment, address: 000F42FA - 000F4303 (0xa bytes), align: 1
  Segment part 256.           Intra module refs:   Font8x8_table
           ENTRY                   ADDRESS         REF BY
           =====                   =======         ======
           Font8x8_char_254        000F42FA 
    -------------------------------------------------------------------------
NEAR_CONST
  Relative segment, address: 000F4304 - 000F430D (0xa bytes), align: 1
  Segment part 257.           Intra module refs:   Font8x8_table
           ENTRY                   ADDRESS         REF BY
           =====                   =======         ======
           Font8x8_char_255        000F4304 
    -------------------------------------------------------------------------
NEAR_CONST
  Relative segment, address: 000F430E - 000F450D (0x200 bytes), align: 1
  Segment part 258.
           ENTRY                   ADDRESS         REF BY
           =====                   =======         ======
           Font8x8_table           000F430E        ST7579_Open (ST7579_LCD)
                                                   ST7579_Write (ST7579_LCD)
    -------------------------------------------------------------------------
NEAR_CONST_ID
  Relative segment, address: 0000390E - 00003917 (0xa bytes), align: 1
  Segment part 259.           Intra module refs:   Font8x8_char_0
    -------------------------------------------------------------------------
NEAR_CONST_ID
  Relative segment, address: 00003918 - 00003921 (0xa bytes), align: 1
  Segment part 260.           Intra module refs:   Font8x8_char_1
    -------------------------------------------------------------------------
NEAR_CONST_ID
  Relative segment, address: 00003922 - 0000392B (0xa bytes), align: 1
  Segment part 261.           Intra module refs:   Font8x8_char_2
    -------------------------------------------------------------------------
NEAR_CONST_ID
  Relative segment, address: 0000392C - 00003935 (0xa bytes), align: 1
  Segment part 262.           Intra module refs:   Font8x8_char_3
    -------------------------------------------------------------------------
NEAR_CONST_ID
  Relative segment, address: 00003936 - 0000393F (0xa bytes), align: 1
  Segment part 263.           Intra module refs:   Font8x8_char_4
    -------------------------------------------------------------------------
NEAR_CONST_ID
  Relative segment, address: 00003940 - 00003949 (0xa bytes), align: 1
  Segment part 264.           Intra module refs:   Font8x8_char_5
    -------------------------------------------------------------------------
NEAR_CONST_ID
  Relative segment, address: 0000394A - 00003953 (0xa bytes), align: 1
  Segment part 265.           Intra module refs:   Font8x8_char_6
    -------------------------------------------------------------------------
NEAR_CONST_ID
  Relative segment, address: 00003954 - 0000395D (0xa bytes), align: 1
  Segment part 266.           Intra module refs:   Font8x8_char_7
    -------------------------------------------------------------------------
NEAR_CONST_ID
  Relative segment, address: 0000395E - 00003967 (0xa bytes), align: 1
  Segment part 267.           Intra module refs:   Font8x8_char_8
    -------------------------------------------------------------------------
NEAR_CONST_ID
  Relative segment, address: 00003968 - 00003971 (0xa bytes), align: 1
  Segment part 268.           Intra module refs:   Font8x8_char_9
    -------------------------------------------------------------------------
NEAR_CONST_ID
  Relative segment, address: 00003972 - 0000397B (0xa bytes), align: 1
  Segment part 269.           Intra module refs:   Font8x8_char_10
    -------------------------------------------------------------------------
NEAR_CONST_ID
  Relative segment, address: 0000397C - 00003985 (0xa bytes), align: 1
  Segment part 270.           Intra module refs:   Font8x8_char_11
    -------------------------------------------------------------------------
NEAR_CONST_ID
  Relative segment, address: 00003986 - 0000398F (0xa bytes), align: 1
  Segment part 271.           Intra module refs:   Font8x8_char_12
    -------------------------------------------------------------------------
NEAR_CONST_ID
  Relative segment, address: 00003990 - 00003999 (0xa bytes), align: 1
  Segment part 272.           Intra module refs:   Font8x8_char_13
    -------------------------------------------------------------------------
NEAR_CONST_ID
  Relative segment, address: 0000399A - 000039A3 (0xa bytes), align: 1
  Segment part 273.           Intra module refs:   Font8x8_char_14
    -------------------------------------------------------------------------
NEAR_CONST_ID
  Relative segment, address: 000039A4 - 000039AD (0xa bytes), align: 1
  Segment part 274.           Intra module refs:   Font8x8_char_15
    -------------------------------------------------------------------------
NEAR_CONST_ID
  Relative segment, address: 000039AE - 000039B7 (0xa bytes), align: 1
  Segment part 275.           Intra module refs:   Font8x8_char_16
    -------------------------------------------------------------------------
NEAR_CONST_ID
  Relative segment, address: 000039B8 - 000039C1 (0xa bytes), align: 1
  Segment part 276.           Intra module refs:   Font8x8_char_17
    -------------------------------------------------------------------------
NEAR_CONST_ID
  Relative segment, address: 000039C2 - 000039CB (0xa bytes), align: 1
  Segment part 277.           Intra module refs:   Font8x8_char_18
    -------------------------------------------------------------------------
NEAR_CONST_ID
  Relative segment, address: 000039CC - 000039D5 (0xa bytes), align: 1
  Segment part 278.           Intra module refs:   Font8x8_char_19
    -------------------------------------------------------------------------
NEAR_CONST_ID
  Relative segment, address: 000039D6 - 000039DF (0xa bytes), align: 1
  Segment part 279.           Intra module refs:   Font8x8_char_20
    -------------------------------------------------------------------------
NEAR_CONST_ID
  Relative segment, address: 000039E0 - 000039E9 (0xa bytes), align: 1
  Segment part 280.           Intra module refs:   Font8x8_char_21
    -------------------------------------------------------------------------
NEAR_CONST_ID
  Relative segment, address: 000039EA - 000039F3 (0xa bytes), align: 1
  Segment part 281.           Intra module refs:   Font8x8_char_22
    -------------------------------------------------------------------------
NEAR_CONST_ID
  Relative segment, address: 000039F4 - 000039FD (0xa bytes), align: 1
  Segment part 282.           Intra module refs:   Font8x8_char_23
    -------------------------------------------------------------------------
NEAR_CONST_ID
  Relative segment, address: 000039FE - 00003A07 (0xa bytes), align: 1
  Segment part 283.           Intra module refs:   Font8x8_char_24
    -------------------------------------------------------------------------
NEAR_CONST_ID
  Relative segment, address: 00003A08 - 00003A11 (0xa bytes), align: 1
  Segment part 284.           Intra module refs:   Font8x8_char_25
    -------------------------------------------------------------------------
NEAR_CONST_ID
  Relative segment, address: 00003A12 - 00003A1B (0xa bytes), align: 1
  Segment part 285.           Intra module refs:   Font8x8_char_26
    -------------------------------------------------------------------------
NEAR_CONST_ID
  Relative segment, address: 00003A1C - 00003A25 (0xa bytes), align: 1
  Segment part 286.           Intra module refs:   Font8x8_char_27
    -------------------------------------------------------------------------
NEAR_CONST_ID
  Relative segment, address: 00003A26 - 00003A2F (0xa bytes), align: 1
  Segment part 287.           Intra module refs:   Font8x8_char_28
    -------------------------------------------------------------------------
NEAR_CONST_ID
  Relative segment, address: 00003A30 - 00003A39 (0xa bytes), align: 1
  Segment part 288.           Intra module refs:   Font8x8_char_29
    -------------------------------------------------------------------------
NEAR_CONST_ID
  Relative segment, address: 00003A3A - 00003A43 (0xa bytes), align: 1
  Segment part 289.           Intra module refs:   Font8x8_char_30
    -------------------------------------------------------------------------
NEAR_CONST_ID
  Relative segment, address: 00003A44 - 00003A4D (0xa bytes), align: 1
  Segment part 290.           Intra module refs:   Font8x8_char_31
    -------------------------------------------------------------------------
NEAR_CONST_ID
  Relative segment, address: 00003A4E - 00003A57 (0xa bytes), align: 1
  Segment part 291.           Intra module refs:   Font8x8_char_32
    -------------------------------------------------------------------------
NEAR_CONST_ID
  Relative segment, address: 00003A58 - 00003A61 (0xa bytes), align: 1
  Segment part 292.           Intra module refs:   Font8x8_char_33
    -------------------------------------------------------------------------
NEAR_CONST_ID
  Relative segment, address: 00003A62 - 00003A6B (0xa bytes), align: 1
  Segment part 293.           Intra module refs:   Font8x8_char_34
    -------------------------------------------------------------------------
NEAR_CONST_ID
  Relative segment, address: 00003A6C - 00003A75 (0xa bytes), align: 1
  Segment part 294.           Intra module refs:   Font8x8_char_35
    -------------------------------------------------------------------------
NEAR_CONST_ID
  Relative segment, address: 00003A76 - 00003A7F (0xa bytes), align: 1
  Segment part 295.           Intra module refs:   Font8x8_char_36
    -------------------------------------------------------------------------
NEAR_CONST_ID
  Relative segment, address: 00003A80 - 00003A89 (0xa bytes), align: 1
  Segment part 296.           Intra module refs:   Font8x8_char_37
    -------------------------------------------------------------------------
NEAR_CONST_ID
  Relative segment, address: 00003A8A - 00003A93 (0xa bytes), align: 1
  Segment part 297.           Intra module refs:   Font8x8_char_38
    -------------------------------------------------------------------------
NEAR_CONST_ID
  Relative segment, address: 00003A94 - 00003A9D (0xa bytes), align: 1
  Segment part 298.           Intra module refs:   Font8x8_char_39
    -------------------------------------------------------------------------
NEAR_CONST_ID
  Relative segment, address: 00003A9E - 00003AA7 (0xa bytes), align: 1
  Segment part 299.           Intra module refs:   Font8x8_char_40
    -------------------------------------------------------------------------
NEAR_CONST_ID
  Relative segment, address: 00003AA8 - 00003AB1 (0xa bytes), align: 1
  Segment part 300.           Intra module refs:   Font8x8_char_41
    -------------------------------------------------------------------------
NEAR_CONST_ID
  Relative segment, address: 00003AB2 - 00003ABB (0xa bytes), align: 1
  Segment part 301.           Intra module refs:   Font8x8_char_42
    -------------------------------------------------------------------------
NEAR_CONST_ID
  Relative segment, address: 00003ABC - 00003AC5 (0xa bytes), align: 1
  Segment part 302.           Intra module refs:   Font8x8_char_43
    -------------------------------------------------------------------------
NEAR_CONST_ID
  Relative segment, address: 00003AC6 - 00003ACF (0xa bytes), align: 1
  Segment part 303.           Intra module refs:   Font8x8_char_44
    -------------------------------------------------------------------------
NEAR_CONST_ID
  Relative segment, address: 00003AD0 - 00003AD9 (0xa bytes), align: 1
  Segment part 304.           Intra module refs:   Font8x8_char_45
    -------------------------------------------------------------------------
NEAR_CONST_ID
  Relative segment, address: 00003ADA - 00003AE3 (0xa bytes), align: 1
  Segment part 305.           Intra module refs:   Font8x8_char_46
    -------------------------------------------------------------------------
NEAR_CONST_ID
  Relative segment, address: 00003AE4 - 00003AED (0xa bytes), align: 1
  Segment part 306.           Intra module refs:   Font8x8_char_47
    -------------------------------------------------------------------------
NEAR_CONST_ID
  Relative segment, address: 00003AEE - 00003AF7 (0xa bytes), align: 1
  Segment part 307.           Intra module refs:   Font8x8_char_48
    -------------------------------------------------------------------------
NEAR_CONST_ID
  Relative segment, address: 00003AF8 - 00003B01 (0xa bytes), align: 1
  Segment part 308.           Intra module refs:   Font8x8_char_49
    -------------------------------------------------------------------------
NEAR_CONST_ID
  Relative segment, address: 00003B02 - 00003B0B (0xa bytes), align: 1
  Segment part 309.           Intra module refs:   Font8x8_char_50
    -------------------------------------------------------------------------
NEAR_CONST_ID
  Relative segment, address: 00003B0C - 00003B15 (0xa bytes), align: 1
  Segment part 310.           Intra module refs:   Font8x8_char_51
    -------------------------------------------------------------------------
NEAR_CONST_ID
  Relative segment, address: 00003B16 - 00003B1F (0xa bytes), align: 1
  Segment part 311.           Intra module refs:   Font8x8_char_52
    -------------------------------------------------------------------------
NEAR_CONST_ID
  Relative segment, address: 00003B20 - 00003B29 (0xa bytes), align: 1
  Segment part 312.           Intra module refs:   Font8x8_char_53
    -------------------------------------------------------------------------
NEAR_CONST_ID
  Relative segment, address: 00003B2A - 00003B33 (0xa bytes), align: 1
  Segment part 313.           Intra module refs:   Font8x8_char_54
    -------------------------------------------------------------------------
NEAR_CONST_ID
  Relative segment, address: 00003B34 - 00003B3D (0xa bytes), align: 1
  Segment part 314.           Intra module refs:   Font8x8_char_55
    -------------------------------------------------------------------------
NEAR_CONST_ID
  Relative segment, address: 00003B3E - 00003B47 (0xa bytes), align: 1
  Segment part 315.           Intra module refs:   Font8x8_char_56
    -------------------------------------------------------------------------
NEAR_CONST_ID
  Relative segment, address: 00003B48 - 00003B51 (0xa bytes), align: 1
  Segment part 316.           Intra module refs:   Font8x8_char_57
    -------------------------------------------------------------------------
NEAR_CONST_ID
  Relative segment, address: 00003B52 - 00003B5B (0xa bytes), align: 1
  Segment part 317.           Intra module refs:   Font8x8_char_58
    -------------------------------------------------------------------------
NEAR_CONST_ID
  Relative segment, address: 00003B5C - 00003B65 (0xa bytes), align: 1
  Segment part 318.           Intra module refs:   Font8x8_char_59
    -------------------------------------------------------------------------
NEAR_CONST_ID
  Relative segment, address: 00003B66 - 00003B6F (0xa bytes), align: 1
  Segment part 319.           Intra module refs:   Font8x8_char_60
    -------------------------------------------------------------------------
NEAR_CONST_ID
  Relative segment, address: 00003B70 - 00003B79 (0xa bytes), align: 1
  Segment part 320.           Intra module refs:   Font8x8_char_61
    -------------------------------------------------------------------------
NEAR_CONST_ID
  Relative segment, address: 00003B7A - 00003B83 (0xa bytes), align: 1
  Segment part 321.           Intra module refs:   Font8x8_char_62
    -------------------------------------------------------------------------
NEAR_CONST_ID
  Relative segment, address: 00003B84 - 00003B8D (0xa bytes), align: 1
  Segment part 322.           Intra module refs:   Font8x8_char_63
    -------------------------------------------------------------------------
NEAR_CONST_ID
  Relative segment, address: 00003B8E - 00003B97 (0xa bytes), align: 1
  Segment part 323.           Intra module refs:   Font8x8_char_64
    -------------------------------------------------------------------------
NEAR_CONST_ID
  Relative segment, address: 00003B98 - 00003BA1 (0xa bytes), align: 1
  Segment part 324.           Intra module refs:   Font8x8_char_65
    -------------------------------------------------------------------------
NEAR_CONST_ID
  Relative segment, address: 00003BA2 - 00003BAB (0xa bytes), align: 1
  Segment part 325.           Intra module refs:   Font8x8_char_66
    -------------------------------------------------------------------------
NEAR_CONST_ID
  Relative segment, address: 00003BAC - 00003BB5 (0xa bytes), align: 1
  Segment part 326.           Intra module refs:   Font8x8_char_67
    -------------------------------------------------------------------------
NEAR_CONST_ID
  Relative segment, address: 00003BB6 - 00003BBF (0xa bytes), align: 1
  Segment part 327.           Intra module refs:   Font8x8_char_68
    -------------------------------------------------------------------------
NEAR_CONST_ID
  Relative segment, address: 00003BC0 - 00003BC9 (0xa bytes), align: 1
  Segment part 328.           Intra module refs:   Font8x8_char_69
    -------------------------------------------------------------------------
NEAR_CONST_ID
  Relative segment, address: 00003BCA - 00003BD3 (0xa bytes), align: 1
  Segment part 329.           Intra module refs:   Font8x8_char_70
    -------------------------------------------------------------------------
NEAR_CONST_ID
  Relative segment, address: 00003BD4 - 00003BDD (0xa bytes), align: 1
  Segment part 330.           Intra module refs:   Font8x8_char_71
    -------------------------------------------------------------------------
NEAR_CONST_ID
  Relative segment, address: 00003BDE - 00003BE7 (0xa bytes), align: 1
  Segment part 331.           Intra module refs:   Font8x8_char_72
    -------------------------------------------------------------------------
NEAR_CONST_ID
  Relative segment, address: 00003BE8 - 00003BF1 (0xa bytes), align: 1
  Segment part 332.           Intra module refs:   Font8x8_char_73
    -------------------------------------------------------------------------
NEAR_CONST_ID
  Relative segment, address: 00003BF2 - 00003BFB (0xa bytes), align: 1
  Segment part 333.           Intra module refs:   Font8x8_char_74
    -------------------------------------------------------------------------
NEAR_CONST_ID
  Relative segment, address: 00003BFC - 00003C05 (0xa bytes), align: 1
  Segment part 334.           Intra module refs:   Font8x8_char_75
    -------------------------------------------------------------------------
NEAR_CONST_ID
  Relative segment, address: 00003C06 - 00003C0F (0xa bytes), align: 1
  Segment part 335.           Intra module refs:   Font8x8_char_76
    -------------------------------------------------------------------------
NEAR_CONST_ID
  Relative segment, address: 00003C10 - 00003C19 (0xa bytes), align: 1
  Segment part 336.           Intra module refs:   Font8x8_char_77
    -------------------------------------------------------------------------
NEAR_CONST_ID
  Relative segment, address: 00003C1A - 00003C23 (0xa bytes), align: 1
  Segment part 337.           Intra module refs:   Font8x8_char_78
    -------------------------------------------------------------------------
NEAR_CONST_ID
  Relative segment, address: 00003C24 - 00003C2D (0xa bytes), align: 1
  Segment part 338.           Intra module refs:   Font8x8_char_79
    -------------------------------------------------------------------------
NEAR_CONST_ID
  Relative segment, address: 00003C2E - 00003C37 (0xa bytes), align: 1
  Segment part 339.           Intra module refs:   Font8x8_char_80
    -------------------------------------------------------------------------
NEAR_CONST_ID
  Relative segment, address: 00003C38 - 00003C41 (0xa bytes), align: 1
  Segment part 340.           Intra module refs:   Font8x8_char_81
    -------------------------------------------------------------------------
NEAR_CONST_ID
  Relative segment, address: 00003C42 - 00003C4B (0xa bytes), align: 1
  Segment part 341.           Intra module refs:   Font8x8_char_82
    -------------------------------------------------------------------------
NEAR_CONST_ID
  Relative segment, address: 00003C4C - 00003C55 (0xa bytes), align: 1
  Segment part 342.           Intra module refs:   Font8x8_char_83
    -------------------------------------------------------------------------
NEAR_CONST_ID
  Relative segment, address: 00003C56 - 00003C5F (0xa bytes), align: 1
  Segment part 343.           Intra module refs:   Font8x8_char_84
    -------------------------------------------------------------------------
NEAR_CONST_ID
  Relative segment, address: 00003C60 - 00003C69 (0xa bytes), align: 1
  Segment part 344.           Intra module refs:   Font8x8_char_85
    -------------------------------------------------------------------------
NEAR_CONST_ID
  Relative segment, address: 00003C6A - 00003C73 (0xa bytes), align: 1
  Segment part 345.           Intra module refs:   Font8x8_char_86
    -------------------------------------------------------------------------
NEAR_CONST_ID
  Relative segment, address: 00003C74 - 00003C7D (0xa bytes), align: 1
  Segment part 346.           Intra module refs:   Font8x8_char_87
    -------------------------------------------------------------------------
NEAR_CONST_ID
  Relative segment, address: 00003C7E - 00003C87 (0xa bytes), align: 1
  Segment part 347.           Intra module refs:   Font8x8_char_88
    -------------------------------------------------------------------------
NEAR_CONST_ID
  Relative segment, address: 00003C88 - 00003C91 (0xa bytes), align: 1
  Segment part 348.           Intra module refs:   Font8x8_char_89
    -------------------------------------------------------------------------
NEAR_CONST_ID
  Relative segment, address: 00003C92 - 00003C9B (0xa bytes), align: 1
  Segment part 349.           Intra module refs:   Font8x8_char_90
    -------------------------------------------------------------------------
NEAR_CONST_ID
  Relative segment, address: 00003C9C - 00003CA5 (0xa bytes), align: 1
  Segment part 350.           Intra module refs:   Font8x8_char_91
    -------------------------------------------------------------------------
NEAR_CONST_ID
  Relative segment, address: 00003CA6 - 00003CAF (0xa bytes), align: 1
  Segment part 351.           Intra module refs:   Font8x8_char_92
    -------------------------------------------------------------------------
NEAR_CONST_ID
  Relative segment, address: 00003CB0 - 00003CB9 (0xa bytes), align: 1
  Segment part 352.           Intra module refs:   Font8x8_char_93
    -------------------------------------------------------------------------
NEAR_CONST_ID
  Relative segment, address: 00003CBA - 00003CC3 (0xa bytes), align: 1
  Segment part 353.           Intra module refs:   Font8x8_char_94
    -------------------------------------------------------------------------
NEAR_CONST_ID
  Relative segment, address: 00003CC4 - 00003CCD (0xa bytes), align: 1
  Segment part 354.           Intra module refs:   Font8x8_char_95
    -------------------------------------------------------------------------
NEAR_CONST_ID
  Relative segment, address: 00003CCE - 00003CD7 (0xa bytes), align: 1
  Segment part 355.           Intra module refs:   Font8x8_char_96
    -------------------------------------------------------------------------
NEAR_CONST_ID
  Relative segment, address: 00003CD8 - 00003CE1 (0xa bytes), align: 1
  Segment part 356.           Intra module refs:   Font8x8_char_97
    -------------------------------------------------------------------------
NEAR_CONST_ID
  Relative segment, address: 00003CE2 - 00003CEB (0xa bytes), align: 1
  Segment part 357.           Intra module refs:   Font8x8_char_98
    -------------------------------------------------------------------------
NEAR_CONST_ID
  Relative segment, address: 00003CEC - 00003CF5 (0xa bytes), align: 1
  Segment part 358.           Intra module refs:   Font8x8_char_99
    -------------------------------------------------------------------------
NEAR_CONST_ID
  Relative segment, address: 00003CF6 - 00003CFF (0xa bytes), align: 1
  Segment part 359.           Intra module refs:   Font8x8_char_100
    -------------------------------------------------------------------------
NEAR_CONST_ID
  Relative segment, address: 00003D00 - 00003D09 (0xa bytes), align: 1
  Segment part 360.           Intra module refs:   Font8x8_char_101
    -------------------------------------------------------------------------
NEAR_CONST_ID
  Relative segment, address: 00003D0A - 00003D13 (0xa bytes), align: 1
  Segment part 361.           Intra module refs:   Font8x8_char_102
    -------------------------------------------------------------------------
NEAR_CONST_ID
  Relative segment, address: 00003D14 - 00003D1D (0xa bytes), align: 1
  Segment part 362.           Intra module refs:   Font8x8_char_103
    -------------------------------------------------------------------------
NEAR_CONST_ID
  Relative segment, address: 00003D1E - 00003D27 (0xa bytes), align: 1
  Segment part 363.           Intra module refs:   Font8x8_char_104
    -------------------------------------------------------------------------
NEAR_CONST_ID
  Relative segment, address: 00003D28 - 00003D31 (0xa bytes), align: 1
  Segment part 364.           Intra module refs:   Font8x8_char_105
    -------------------------------------------------------------------------
NEAR_CONST_ID
  Relative segment, address: 00003D32 - 00003D3B (0xa bytes), align: 1
  Segment part 365.           Intra module refs:   Font8x8_char_106
    -------------------------------------------------------------------------
NEAR_CONST_ID
  Relative segment, address: 00003D3C - 00003D45 (0xa bytes), align: 1
  Segment part 366.           Intra module refs:   Font8x8_char_107
    -------------------------------------------------------------------------
NEAR_CONST_ID
  Relative segment, address: 00003D46 - 00003D4F (0xa bytes), align: 1
  Segment part 367.           Intra module refs:   Font8x8_char_108
    -------------------------------------------------------------------------
NEAR_CONST_ID
  Relative segment, address: 00003D50 - 00003D59 (0xa bytes), align: 1
  Segment part 368.           Intra module refs:   Font8x8_char_109
    -------------------------------------------------------------------------
NEAR_CONST_ID
  Relative segment, address: 00003D5A - 00003D63 (0xa bytes), align: 1
  Segment part 369.           Intra module refs:   Font8x8_char_110
    -------------------------------------------------------------------------
NEAR_CONST_ID
  Relative segment, address: 00003D64 - 00003D6D (0xa bytes), align: 1
  Segment part 370.           Intra module refs:   Font8x8_char_111
    -------------------------------------------------------------------------
NEAR_CONST_ID
  Relative segment, address: 00003D6E - 00003D77 (0xa bytes), align: 1
  Segment part 371.           Intra module refs:   Font8x8_char_112
    -------------------------------------------------------------------------
NEAR_CONST_ID
  Relative segment, address: 00003D78 - 00003D81 (0xa bytes), align: 1
  Segment part 372.           Intra module refs:   Font8x8_char_113
    -------------------------------------------------------------------------
NEAR_CONST_ID
  Relative segment, address: 00003D82 - 00003D8B (0xa bytes), align: 1
  Segment part 373.           Intra module refs:   Font8x8_char_114
    -------------------------------------------------------------------------
NEAR_CONST_ID
  Relative segment, address: 00003D8C - 00003D95 (0xa bytes), align: 1
  Segment part 374.           Intra module refs:   Font8x8_char_115
    -------------------------------------------------------------------------
NEAR_CONST_ID
  Relative segment, address: 00003D96 - 00003D9F (0xa bytes), align: 1
  Segment part 375.           Intra module refs:   Font8x8_char_116
    -------------------------------------------------------------------------
NEAR_CONST_ID
  Relative segment, address: 00003DA0 - 00003DA9 (0xa bytes), align: 1
  Segment part 376.           Intra module refs:   Font8x8_char_117
    -------------------------------------------------------------------------
NEAR_CONST_ID
  Relative segment, address: 00003DAA - 00003DB3 (0xa bytes), align: 1
  Segment part 377.           Intra module refs:   Font8x8_char_118
    -------------------------------------------------------------------------
NEAR_CONST_ID
  Relative segment, address: 00003DB4 - 00003DBD (0xa bytes), align: 1
  Segment part 378.           Intra module refs:   Font8x8_char_119
    -------------------------------------------------------------------------
NEAR_CONST_ID
  Relative segment, address: 00003DBE - 00003DC7 (0xa bytes), align: 1
  Segment part 379.           Intra module refs:   Font8x8_char_120
    -------------------------------------------------------------------------
NEAR_CONST_ID
  Relative segment, address: 00003DC8 - 00003DD1 (0xa bytes), align: 1
  Segment part 380.           Intra module refs:   Font8x8_char_121
    -------------------------------------------------------------------------
NEAR_CONST_ID
  Relative segment, address: 00003DD2 - 00003DDB (0xa bytes), align: 1
  Segment part 381.           Intra module refs:   Font8x8_char_122
    -------------------------------------------------------------------------
NEAR_CONST_ID
  Relative segment, address: 00003DDC - 00003DE5 (0xa bytes), align: 1
  Segment part 382.           Intra module refs:   Font8x8_char_123
    -------------------------------------------------------------------------
NEAR_CONST_ID
  Relative segment, address: 00003DE6 - 00003DEF (0xa bytes), align: 1
  Segment part 383.           Intra module refs:   Font8x8_char_124
    -------------------------------------------------------------------------
NEAR_CONST_ID
  Relative segment, address: 00003DF0 - 00003DF9 (0xa bytes), align: 1
  Segment part 384.           Intra module refs:   Font8x8_char_125
    -------------------------------------------------------------------------
NEAR_CONST_ID
  Relative segment, address: 00003DFA - 00003E03 (0xa bytes), align: 1
  Segment part 385.           Intra module refs:   Font8x8_char_126
    -------------------------------------------------------------------------
NEAR_CONST_ID
  Relative segment, address: 00003E04 - 00003E0D (0xa bytes), align: 1
  Segment part 386.           Intra module refs:   Font8x8_char_127
    -------------------------------------------------------------------------
NEAR_CONST_ID
  Relative segment, address: 00003E0E - 00003E17 (0xa bytes), align: 1
  Segment part 387.           Intra module refs:   Font8x8_char_128
    -------------------------------------------------------------------------
NEAR_CONST_ID
  Relative segment, address: 00003E18 - 00003E21 (0xa bytes), align: 1
  Segment part 388.           Intra module refs:   Font8x8_char_129
    -------------------------------------------------------------------------
NEAR_CONST_ID
  Relative segment, address: 00003E22 - 00003E2B (0xa bytes), align: 1
  Segment part 389.           Intra module refs:   Font8x8_char_130
    -------------------------------------------------------------------------
NEAR_CONST_ID
  Relative segment, address: 00003E2C - 00003E35 (0xa bytes), align: 1
  Segment part 390.           Intra module refs:   Font8x8_char_131
    -------------------------------------------------------------------------
NEAR_CONST_ID
  Relative segment, address: 00003E36 - 00003E3F (0xa bytes), align: 1
  Segment part 391.           Intra module refs:   Font8x8_char_132
    -------------------------------------------------------------------------
NEAR_CONST_ID
  Relative segment, address: 00003E40 - 00003E49 (0xa bytes), align: 1
  Segment part 392.           Intra module refs:   Font8x8_char_133
    -------------------------------------------------------------------------
NEAR_CONST_ID
  Relative segment, address: 00003E4A - 00003E53 (0xa bytes), align: 1
  Segment part 393.           Intra module refs:   Font8x8_char_134
    -------------------------------------------------------------------------
NEAR_CONST_ID
  Relative segment, address: 00003E54 - 00003E5D (0xa bytes), align: 1
  Segment part 394.           Intra module refs:   Font8x8_char_135
    -------------------------------------------------------------------------
NEAR_CONST_ID
  Relative segment, address: 00003E5E - 00003E67 (0xa bytes), align: 1
  Segment part 395.           Intra module refs:   Font8x8_char_136
    -------------------------------------------------------------------------
NEAR_CONST_ID
  Relative segment, address: 00003E68 - 00003E71 (0xa bytes), align: 1
  Segment part 396.           Intra module refs:   Font8x8_char_137
    -------------------------------------------------------------------------
NEAR_CONST_ID
  Relative segment, address: 00003E72 - 00003E7B (0xa bytes), align: 1
  Segment part 397.           Intra module refs:   Font8x8_char_138
    -------------------------------------------------------------------------
NEAR_CONST_ID
  Relative segment, address: 00003E7C - 00003E85 (0xa bytes), align: 1
  Segment part 398.           Intra module refs:   Font8x8_char_139
    -------------------------------------------------------------------------
NEAR_CONST_ID
  Relative segment, address: 00003E86 - 00003E8F (0xa bytes), align: 1
  Segment part 399.           Intra module refs:   Font8x8_char_140
    -------------------------------------------------------------------------
NEAR_CONST_ID
  Relative segment, address: 00003E90 - 00003E99 (0xa bytes), align: 1
  Segment part 400.           Intra module refs:   Font8x8_char_141
    -------------------------------------------------------------------------
NEAR_CONST_ID
  Relative segment, address: 00003E9A - 00003EA3 (0xa bytes), align: 1
  Segment part 401.           Intra module refs:   Font8x8_char_142
    -------------------------------------------------------------------------
NEAR_CONST_ID
  Relative segment, address: 00003EA4 - 00003EAD (0xa bytes), align: 1
  Segment part 402.           Intra module refs:   Font8x8_char_143
    -------------------------------------------------------------------------
NEAR_CONST_ID
  Relative segment, address: 00003EAE - 00003EB7 (0xa bytes), align: 1
  Segment part 403.           Intra module refs:   Font8x8_char_144
    -------------------------------------------------------------------------
NEAR_CONST_ID
  Relative segment, address: 00003EB8 - 00003EC1 (0xa bytes), align: 1
  Segment part 404.           Intra module refs:   Font8x8_char_145
    -------------------------------------------------------------------------
NEAR_CONST_ID
  Relative segment, address: 00003EC2 - 00003ECB (0xa bytes), align: 1
  Segment part 405.           Intra module refs:   Font8x8_char_146
    -------------------------------------------------------------------------
NEAR_CONST_ID
  Relative segment, address: 00003ECC - 00003ED5 (0xa bytes), align: 1
  Segment part 406.           Intra module refs:   Font8x8_char_147
    -------------------------------------------------------------------------
NEAR_CONST_ID
  Relative segment, address: 00003ED6 - 00003EDF (0xa bytes), align: 1
  Segment part 407.           Intra module refs:   Font8x8_char_148
    -------------------------------------------------------------------------
NEAR_CONST_ID
  Relative segment, address: 00003EE0 - 00003EE9 (0xa bytes), align: 1
  Segment part 408.           Intra module refs:   Font8x8_char_149
    -------------------------------------------------------------------------
NEAR_CONST_ID
  Relative segment, address: 00003EEA - 00003EF3 (0xa bytes), align: 1
  Segment part 409.           Intra module refs:   Font8x8_char_150
    -------------------------------------------------------------------------
NEAR_CONST_ID
  Relative segment, address: 00003EF4 - 00003EFD (0xa bytes), align: 1
  Segment part 410.           Intra module refs:   Font8x8_char_151
    -------------------------------------------------------------------------
NEAR_CONST_ID
  Relative segment, address: 00003EFE - 00003F07 (0xa bytes), align: 1
  Segment part 411.           Intra module refs:   Font8x8_char_152
    -------------------------------------------------------------------------
NEAR_CONST_ID
  Relative segment, address: 00003F08 - 00003F11 (0xa bytes), align: 1
  Segment part 412.           Intra module refs:   Font8x8_char_153
    -------------------------------------------------------------------------
NEAR_CONST_ID
  Relative segment, address: 00003F12 - 00003F1B (0xa bytes), align: 1
  Segment part 413.           Intra module refs:   Font8x8_char_154
    -------------------------------------------------------------------------
NEAR_CONST_ID
  Relative segment, address: 00003F1C - 00003F25 (0xa bytes), align: 1
  Segment part 414.           Intra module refs:   Font8x8_char_155
    -------------------------------------------------------------------------
NEAR_CONST_ID
  Relative segment, address: 00003F26 - 00003F2F (0xa bytes), align: 1
  Segment part 415.           Intra module refs:   Font8x8_char_156
    -------------------------------------------------------------------------
NEAR_CONST_ID
  Relative segment, address: 00003F30 - 00003F39 (0xa bytes), align: 1
  Segment part 416.           Intra module refs:   Font8x8_char_157
    -------------------------------------------------------------------------
NEAR_CONST_ID
  Relative segment, address: 00003F3A - 00003F43 (0xa bytes), align: 1
  Segment part 417.           Intra module refs:   Font8x8_char_158
    -------------------------------------------------------------------------
NEAR_CONST_ID
  Relative segment, address: 00003F44 - 00003F4D (0xa bytes), align: 1
  Segment part 418.           Intra module refs:   Font8x8_char_159
    -------------------------------------------------------------------------
NEAR_CONST_ID
  Relative segment, address: 00003F4E - 00003F57 (0xa bytes), align: 1
  Segment part 419.           Intra module refs:   Font8x8_char_160
    -------------------------------------------------------------------------
NEAR_CONST_ID
  Relative segment, address: 00003F58 - 00003F61 (0xa bytes), align: 1
  Segment part 420.           Intra module refs:   Font8x8_char_161
    -------------------------------------------------------------------------
NEAR_CONST_ID
  Relative segment, address: 00003F62 - 00003F6B (0xa bytes), align: 1
  Segment part 421.           Intra module refs:   Font8x8_char_162
    -------------------------------------------------------------------------
NEAR_CONST_ID
  Relative segment, address: 00003F6C - 00003F75 (0xa bytes), align: 1
  Segment part 422.           Intra module refs:   Font8x8_char_163
    -------------------------------------------------------------------------
NEAR_CONST_ID
  Relative segment, address: 00003F76 - 00003F7F (0xa bytes), align: 1
  Segment part 423.           Intra module refs:   Font8x8_char_164
    -------------------------------------------------------------------------
NEAR_CONST_ID
  Relative segment, address: 00003F80 - 00003F89 (0xa bytes), align: 1
  Segment part 424.           Intra module refs:   Font8x8_char_165
    -------------------------------------------------------------------------
NEAR_CONST_ID
  Relative segment, address: 00003F8A - 00003F93 (0xa bytes), align: 1
  Segment part 425.           Intra module refs:   Font8x8_char_166
    -------------------------------------------------------------------------
NEAR_CONST_ID
  Relative segment, address: 00003F94 - 00003F9D (0xa bytes), align: 1
  Segment part 426.           Intra module refs:   Font8x8_char_167
    -------------------------------------------------------------------------
NEAR_CONST_ID
  Relative segment, address: 00003F9E - 00003FA7 (0xa bytes), align: 1
  Segment part 427.           Intra module refs:   Font8x8_char_168
    -------------------------------------------------------------------------
NEAR_CONST_ID
  Relative segment, address: 00003FA8 - 00003FB1 (0xa bytes), align: 1
  Segment part 428.           Intra module refs:   Font8x8_char_169
    -------------------------------------------------------------------------
NEAR_CONST_ID
  Relative segment, address: 00003FB2 - 00003FBB (0xa bytes), align: 1
  Segment part 429.           Intra module refs:   Font8x8_char_170
    -------------------------------------------------------------------------
NEAR_CONST_ID
  Relative segment, address: 00003FBC - 00003FC5 (0xa bytes), align: 1
  Segment part 430.           Intra module refs:   Font8x8_char_171
    -------------------------------------------------------------------------
NEAR_CONST_ID
  Relative segment, address: 00003FC6 - 00003FCF (0xa bytes), align: 1
  Segment part 431.           Intra module refs:   Font8x8_char_172
    -------------------------------------------------------------------------
NEAR_CONST_ID
  Relative segment, address: 00003FD0 - 00003FD9 (0xa bytes), align: 1
  Segment part 432.           Intra module refs:   Font8x8_char_173
    -------------------------------------------------------------------------
NEAR_CONST_ID
  Relative segment, address: 00003FDA - 00003FE3 (0xa bytes), align: 1
  Segment part 433.           Intra module refs:   Font8x8_char_174
    -------------------------------------------------------------------------
NEAR_CONST_ID
  Relative segment, address: 00003FE4 - 00003FED (0xa bytes), align: 1
  Segment part 434.           Intra module refs:   Font8x8_char_175
    -------------------------------------------------------------------------
NEAR_CONST_ID
  Relative segment, address: 00003FEE - 00003FF7 (0xa bytes), align: 1
  Segment part 435.           Intra module refs:   Font8x8_char_176
    -------------------------------------------------------------------------
NEAR_CONST_ID
  Relative segment, address: 00003FF8 - 00004001 (0xa bytes), align: 1
  Segment part 436.           Intra module refs:   Font8x8_char_177
    -------------------------------------------------------------------------
NEAR_CONST_ID
  Relative segment, address: 00004002 - 0000400B (0xa bytes), align: 1
  Segment part 437.           Intra module refs:   Font8x8_char_178
    -------------------------------------------------------------------------
NEAR_CONST_ID
  Relative segment, address: 0000400C - 00004015 (0xa bytes), align: 1
  Segment part 438.           Intra module refs:   Font8x8_char_179
    -------------------------------------------------------------------------
NEAR_CONST_ID
  Relative segment, address: 00004016 - 0000401F (0xa bytes), align: 1
  Segment part 439.           Intra module refs:   Font8x8_char_180
    -------------------------------------------------------------------------
NEAR_CONST_ID
  Relative segment, address: 00004020 - 00004029 (0xa bytes), align: 1
  Segment part 440.           Intra module refs:   Font8x8_char_181
    -------------------------------------------------------------------------
NEAR_CONST_ID
  Relative segment, address: 0000402A - 00004033 (0xa bytes), align: 1
  Segment part 441.           Intra module refs:   Font8x8_char_182
    -------------------------------------------------------------------------
NEAR_CONST_ID
  Relative segment, address: 00004034 - 0000403D (0xa bytes), align: 1
  Segment part 442.           Intra module refs:   Font8x8_char_183
    -------------------------------------------------------------------------
NEAR_CONST_ID
  Relative segment, address: 0000403E - 00004047 (0xa bytes), align: 1
  Segment part 443.           Intra module refs:   Font8x8_char_184
    -------------------------------------------------------------------------
NEAR_CONST_ID
  Relative segment, address: 00004048 - 00004051 (0xa bytes), align: 1
  Segment part 444.           Intra module refs:   Font8x8_char_185
    -------------------------------------------------------------------------
NEAR_CONST_ID
  Relative segment, address: 00004052 - 0000405B (0xa bytes), align: 1
  Segment part 445.           Intra module refs:   Font8x8_char_186
    -------------------------------------------------------------------------
NEAR_CONST_ID
  Relative segment, address: 0000405C - 00004065 (0xa bytes), align: 1
  Segment part 446.           Intra module refs:   Font8x8_char_187
    -------------------------------------------------------------------------
NEAR_CONST_ID
  Relative segment, address: 00004066 - 0000406F (0xa bytes), align: 1
  Segment part 447.           Intra module refs:   Font8x8_char_188
    -------------------------------------------------------------------------
NEAR_CONST_ID
  Relative segment, address: 00004070 - 00004079 (0xa bytes), align: 1
  Segment part 448.           Intra module refs:   Font8x8_char_189
    -------------------------------------------------------------------------
NEAR_CONST_ID
  Relative segment, address: 0000407A - 00004083 (0xa bytes), align: 1
  Segment part 449.           Intra module refs:   Font8x8_char_190
    -------------------------------------------------------------------------
NEAR_CONST_ID
  Relative segment, address: 00004084 - 0000408D (0xa bytes), align: 1
  Segment part 450.           Intra module refs:   Font8x8_char_191
    -------------------------------------------------------------------------
NEAR_CONST_ID
  Relative segment, address: 0000408E - 00004097 (0xa bytes), align: 1
  Segment part 451.           Intra module refs:   Font8x8_char_192
    -------------------------------------------------------------------------
NEAR_CONST_ID
  Relative segment, address: 00004098 - 000040A1 (0xa bytes), align: 1
  Segment part 452.           Intra module refs:   Font8x8_char_193
    -------------------------------------------------------------------------
NEAR_CONST_ID
  Relative segment, address: 000040A2 - 000040AB (0xa bytes), align: 1
  Segment part 453.           Intra module refs:   Font8x8_char_194
    -------------------------------------------------------------------------
NEAR_CONST_ID
  Relative segment, address: 000040AC - 000040B5 (0xa bytes), align: 1
  Segment part 454.           Intra module refs:   Font8x8_char_195
    -------------------------------------------------------------------------
NEAR_CONST_ID
  Relative segment, address: 000040B6 - 000040BF (0xa bytes), align: 1
  Segment part 455.           Intra module refs:   Font8x8_char_196
    -------------------------------------------------------------------------
NEAR_CONST_ID
  Relative segment, address: 000040C0 - 000040C9 (0xa bytes), align: 1
  Segment part 456.           Intra module refs:   Font8x8_char_197
    -------------------------------------------------------------------------
NEAR_CONST_ID
  Relative segment, address: 000040CA - 000040D3 (0xa bytes), align: 1
  Segment part 457.           Intra module refs:   Font8x8_char_198
    -------------------------------------------------------------------------
NEAR_CONST_ID
  Relative segment, address: 000040D4 - 000040DD (0xa bytes), align: 1
  Segment part 458.           Intra module refs:   Font8x8_char_199
    -------------------------------------------------------------------------
NEAR_CONST_ID
  Relative segment, address: 000040DE - 000040E7 (0xa bytes), align: 1
  Segment part 459.           Intra module refs:   Font8x8_char_200
    -------------------------------------------------------------------------
NEAR_CONST_ID
  Relative segment, address: 000040E8 - 000040F1 (0xa bytes), align: 1
  Segment part 460.           Intra module refs:   Font8x8_char_201
    -------------------------------------------------------------------------
NEAR_CONST_ID
  Relative segment, address: 000040F2 - 000040FB (0xa bytes), align: 1
  Segment part 461.           Intra module refs:   Font8x8_char_202
    -------------------------------------------------------------------------
NEAR_CONST_ID
  Relative segment, address: 000040FC - 00004105 (0xa bytes), align: 1
  Segment part 462.           Intra module refs:   Font8x8_char_203
    -------------------------------------------------------------------------
NEAR_CONST_ID
  Relative segment, address: 00004106 - 0000410F (0xa bytes), align: 1
  Segment part 463.           Intra module refs:   Font8x8_char_204
    -------------------------------------------------------------------------
NEAR_CONST_ID
  Relative segment, address: 00004110 - 00004119 (0xa bytes), align: 1
  Segment part 464.           Intra module refs:   Font8x8_char_205
    -------------------------------------------------------------------------
NEAR_CONST_ID
  Relative segment, address: 0000411A - 00004123 (0xa bytes), align: 1
  Segment part 465.           Intra module refs:   Font8x8_char_206
    -------------------------------------------------------------------------
NEAR_CONST_ID
  Relative segment, address: 00004124 - 0000412D (0xa bytes), align: 1
  Segment part 466.           Intra module refs:   Font8x8_char_207
    -------------------------------------------------------------------------
NEAR_CONST_ID
  Relative segment, address: 0000412E - 00004137 (0xa bytes), align: 1
  Segment part 467.           Intra module refs:   Font8x8_char_208
    -------------------------------------------------------------------------
NEAR_CONST_ID
  Relative segment, address: 00004138 - 00004141 (0xa bytes), align: 1
  Segment part 468.           Intra module refs:   Font8x8_char_209
    -------------------------------------------------------------------------
NEAR_CONST_ID
  Relative segment, address: 00004142 - 0000414B (0xa bytes), align: 1
  Segment part 469.           Intra module refs:   Font8x8_char_210
    -------------------------------------------------------------------------
NEAR_CONST_ID
  Relative segment, address: 0000414C - 00004155 (0xa bytes), align: 1
  Segment part 470.           Intra module refs:   Font8x8_char_211
    -------------------------------------------------------------------------
NEAR_CONST_ID
  Relative segment, address: 00004156 - 0000415F (0xa bytes), align: 1
  Segment part 471.           Intra module refs:   Font8x8_char_212
    -------------------------------------------------------------------------
NEAR_CONST_ID
  Relative segment, address: 00004160 - 00004169 (0xa bytes), align: 1
  Segment part 472.           Intra module refs:   Font8x8_char_213
    -------------------------------------------------------------------------
NEAR_CONST_ID
  Relative segment, address: 0000416A - 00004173 (0xa bytes), align: 1
  Segment part 473.           Intra module refs:   Font8x8_char_214
    -------------------------------------------------------------------------
NEAR_CONST_ID
  Relative segment, address: 00004174 - 0000417D (0xa bytes), align: 1
  Segment part 474.           Intra module refs:   Font8x8_char_215
    -------------------------------------------------------------------------
NEAR_CONST_ID
  Relative segment, address: 0000417E - 00004187 (0xa bytes), align: 1
  Segment part 475.           Intra module refs:   Font8x8_char_216
    -------------------------------------------------------------------------
NEAR_CONST_ID
  Relative segment, address: 00004188 - 00004191 (0xa bytes), align: 1
  Segment part 476.           Intra module refs:   Font8x8_char_217
    -------------------------------------------------------------------------
NEAR_CONST_ID
  Relative segment, address: 00004192 - 0000419B (0xa bytes), align: 1
  Segment part 477.           Intra module refs:   Font8x8_char_218
    -------------------------------------------------------------------------
NEAR_CONST_ID
  Relative segment, address: 0000419C - 000041A5 (0xa bytes), align: 1
  Segment part 478.           Intra module refs:   Font8x8_char_219
    -------------------------------------------------------------------------
NEAR_CONST_ID
  Relative segment, address: 000041A6 - 000041AF (0xa bytes), align: 1
  Segment part 479.           Intra module refs:   Font8x8_char_220
    -------------------------------------------------------------------------
NEAR_CONST_ID
  Relative segment, address: 000041B0 - 000041B9 (0xa bytes), align: 1
  Segment part 480.           Intra module refs:   Font8x8_char_221
    -------------------------------------------------------------------------
NEAR_CONST_ID
  Relative segment, address: 000041BA - 000041C3 (0xa bytes), align: 1
  Segment part 481.           Intra module refs:   Font8x8_char_222
    -------------------------------------------------------------------------
NEAR_CONST_ID
  Relative segment, address: 000041C4 - 000041CD (0xa bytes), align: 1
  Segment part 482.           Intra module refs:   Font8x8_char_223
    -------------------------------------------------------------------------
NEAR_CONST_ID
  Relative segment, address: 000041CE - 000041D7 (0xa bytes), align: 1
  Segment part 483.           Intra module refs:   Font8x8_char_224
    -------------------------------------------------------------------------
NEAR_CONST_ID
  Relative segment, address: 000041D8 - 000041E1 (0xa bytes), align: 1
  Segment part 484.           Intra module refs:   Font8x8_char_225
    -------------------------------------------------------------------------
NEAR_CONST_ID
  Relative segment, address: 000041E2 - 000041EB (0xa bytes), align: 1
  Segment part 485.           Intra module refs:   Font8x8_char_226
    -------------------------------------------------------------------------
NEAR_CONST_ID
  Relative segment, address: 000041EC - 000041F5 (0xa bytes), align: 1
  Segment part 486.           Intra module refs:   Font8x8_char_227
    -------------------------------------------------------------------------
NEAR_CONST_ID
  Relative segment, address: 000041F6 - 000041FF (0xa bytes), align: 1
  Segment part 487.           Intra module refs:   Font8x8_char_228
    -------------------------------------------------------------------------
NEAR_CONST_ID
  Relative segment, address: 00004200 - 00004209 (0xa bytes), align: 1
  Segment part 488.           Intra module refs:   Font8x8_char_229
    -------------------------------------------------------------------------
NEAR_CONST_ID
  Relative segment, address: 0000420A - 00004213 (0xa bytes), align: 1
  Segment part 489.           Intra module refs:   Font8x8_char_230
    -------------------------------------------------------------------------
NEAR_CONST_ID
  Relative segment, address: 00004214 - 0000421D (0xa bytes), align: 1
  Segment part 490.           Intra module refs:   Font8x8_char_231
    -------------------------------------------------------------------------
NEAR_CONST_ID
  Relative segment, address: 0000421E - 00004227 (0xa bytes), align: 1
  Segment part 491.           Intra module refs:   Font8x8_char_232
    -------------------------------------------------------------------------
NEAR_CONST_ID
  Relative segment, address: 00004228 - 00004231 (0xa bytes), align: 1
  Segment part 492.           Intra module refs:   Font8x8_char_233
    -------------------------------------------------------------------------
NEAR_CONST_ID
  Relative segment, address: 00004232 - 0000423B (0xa bytes), align: 1
  Segment part 493.           Intra module refs:   Font8x8_char_234
    -------------------------------------------------------------------------
NEAR_CONST_ID
  Relative segment, address: 0000423C - 00004245 (0xa bytes), align: 1
  Segment part 494.           Intra module refs:   Font8x8_char_235
    -------------------------------------------------------------------------
NEAR_CONST_ID
  Relative segment, address: 00004246 - 0000424F (0xa bytes), align: 1
  Segment part 495.           Intra module refs:   Font8x8_char_236
    -------------------------------------------------------------------------
NEAR_CONST_ID
  Relative segment, address: 00004250 - 00004259 (0xa bytes), align: 1
  Segment part 496.           Intra module refs:   Font8x8_char_237
    -------------------------------------------------------------------------
NEAR_CONST_ID
  Relative segment, address: 0000425A - 00004263 (0xa bytes), align: 1
  Segment part 497.           Intra module refs:   Font8x8_char_238
    -------------------------------------------------------------------------
NEAR_CONST_ID
  Relative segment, address: 00004264 - 0000426D (0xa bytes), align: 1
  Segment part 498.           Intra module refs:   Font8x8_char_239
    -------------------------------------------------------------------------
NEAR_CONST_ID
  Relative segment, address: 0000426E - 00004277 (0xa bytes), align: 1
  Segment part 499.           Intra module refs:   Font8x8_char_240
    -------------------------------------------------------------------------
NEAR_CONST_ID
  Relative segment, address: 00004278 - 00004281 (0xa bytes), align: 1
  Segment part 500.           Intra module refs:   Font8x8_char_241
    -------------------------------------------------------------------------
NEAR_CONST_ID
  Relative segment, address: 00004282 - 0000428B (0xa bytes), align: 1
  Segment part 501.           Intra module refs:   Font8x8_char_242
    -------------------------------------------------------------------------
NEAR_CONST_ID
  Relative segment, address: 0000428C - 00004295 (0xa bytes), align: 1
  Segment part 502.           Intra module refs:   Font8x8_char_243
    -------------------------------------------------------------------------
NEAR_CONST_ID
  Relative segment, address: 00004296 - 0000429F (0xa bytes), align: 1
  Segment part 503.           Intra module refs:   Font8x8_char_244
    -------------------------------------------------------------------------
NEAR_CONST_ID
  Relative segment, address: 000042A0 - 000042A9 (0xa bytes), align: 1
  Segment part 504.           Intra module refs:   Font8x8_char_245
    -------------------------------------------------------------------------
NEAR_CONST_ID
  Relative segment, address: 000042AA - 000042B3 (0xa bytes), align: 1
  Segment part 505.           Intra module refs:   Font8x8_char_246
    -------------------------------------------------------------------------
NEAR_CONST_ID
  Relative segment, address: 000042B4 - 000042BD (0xa bytes), align: 1
  Segment part 506.           Intra module refs:   Font8x8_char_247
    -------------------------------------------------------------------------
NEAR_CONST_ID
  Relative segment, address: 000042BE - 000042C7 (0xa bytes), align: 1
  Segment part 507.           Intra module refs:   Font8x8_char_248
    -------------------------------------------------------------------------
NEAR_CONST_ID
  Relative segment, address: 000042C8 - 000042D1 (0xa bytes), align: 1
  Segment part 508.           Intra module refs:   Font8x8_char_249
    -------------------------------------------------------------------------
NEAR_CONST_ID
  Relative segment, address: 000042D2 - 000042DB (0xa bytes), align: 1
  Segment part 509.           Intra module refs:   Font8x8_char_250
    -------------------------------------------------------------------------
NEAR_CONST_ID
  Relative segment, address: 000042DC - 000042E5 (0xa bytes), align: 1
  Segment part 510.           Intra module refs:   Font8x8_char_251
    -------------------------------------------------------------------------
NEAR_CONST_ID
  Relative segment, address: 000042E6 - 000042EF (0xa bytes), align: 1
  Segment part 511.           Intra module refs:   Font8x8_char_252
    -------------------------------------------------------------------------
NEAR_CONST_ID
  Relative segment, address: 000042F0 - 000042F9 (0xa bytes), align: 1
  Segment part 512.           Intra module refs:   Font8x8_char_253
    -------------------------------------------------------------------------
NEAR_CONST_ID
  Relative segment, address: 000042FA - 00004303 (0xa bytes), align: 1
  Segment part 513.           Intra module refs:   Font8x8_char_254
    -------------------------------------------------------------------------
NEAR_CONST_ID
  Relative segment, address: 00004304 - 0000430D (0xa bytes), align: 1
  Segment part 514.           Intra module refs:   Font8x8_char_255
    -------------------------------------------------------------------------
NEAR_CONST_ID
  Relative segment, address: 0000430E - 0000450D (0x200 bytes), align: 1
  Segment part 515.           Intra module refs:   Font8x8_table

    -------------------------------------------------------------------------
  LIBRARY MODULE, NAME : font_logos

  SEGMENTS IN THE MODULE
  ======================
NEAR_CONST
  Relative segment, address: 000F450E - 000F45AF (0xa2 bytes), align: 1
  Segment part 2.             Intra module refs:   Logos_table
           ENTRY                   ADDRESS         REF BY
           =====                   =======         ======
           Renesas_Logo            000F450E 
    -------------------------------------------------------------------------
NEAR_CONST
  Relative segment, address: 000F45B0 - 000F47AF (0x200 bytes), align: 1
  Segment part 3.
           ENTRY                   ADDRESS         REF BY
           =====                   =======         ======
           Logos_table             000F45B0        ST7579_Write (ST7579_LCD)
    -------------------------------------------------------------------------
NEAR_CONST_ID
  Relative segment, address: 0000450E - 000045AF (0xa2 bytes), align: 1
  Segment part 4.             Intra module refs:   Renesas_Logo
    -------------------------------------------------------------------------
NEAR_CONST_ID
  Relative segment, address: 000045B0 - 000047AF (0x200 bytes), align: 1
  Segment part 5.             Intra module refs:   Logos_table

    -------------------------------------------------------------------------
  LIBRARY MODULE, NAME : font_x5x7

  SEGMENTS IN THE MODULE
  ======================
NEAR_CONST
  Relative segment, address: 000F47B0 - 000F47B7 (0x8 bytes), align: 1
  Segment part 2.             Intra module refs:   Fontx5x7_table
           ENTRY                   ADDRESS         REF BY
           =====                   =======         ======
           Fontx5x7_char_0         000F47B0 
    -------------------------------------------------------------------------
NEAR_CONST
  Relative segment, address: 000F47B8 - 000F47BF (0x8 bytes), align: 1
  Segment part 3.             Intra module refs:   Fontx5x7_table
           ENTRY                   ADDRESS         REF BY
           =====                   =======         ======
           Fontx5x7_char_1         000F47B8 
    -------------------------------------------------------------------------
NEAR_CONST
  Relative segment, address: 000F47C0 - 000F47C7 (0x8 bytes), align: 1
  Segment part 4.             Intra module refs:   Fontx5x7_table
           ENTRY                   ADDRESS         REF BY
           =====                   =======         ======
           Fontx5x7_char_2         000F47C0 
    -------------------------------------------------------------------------
NEAR_CONST
  Relative segment, address: 000F47C8 - 000F47CF (0x8 bytes), align: 1
  Segment part 5.             Intra module refs:   Fontx5x7_table
           ENTRY                   ADDRESS         REF BY
           =====                   =======         ======
           Fontx5x7_char_3         000F47C8 
    -------------------------------------------------------------------------
NEAR_CONST
  Relative segment, address: 000F47D0 - 000F47D7 (0x8 bytes), align: 1
  Segment part 6.             Intra module refs:   Fontx5x7_table
           ENTRY                   ADDRESS         REF BY
           =====                   =======         ======
           Fontx5x7_char_4         000F47D0 
    -------------------------------------------------------------------------
NEAR_CONST
  Relative segment, address: 000F47D8 - 000F47DF (0x8 bytes), align: 1
  Segment part 7.             Intra module refs:   Fontx5x7_table
           ENTRY                   ADDRESS         REF BY
           =====                   =======         ======
           Fontx5x7_char_5         000F47D8 
    -------------------------------------------------------------------------
NEAR_CONST
  Relative segment, address: 000F47E0 - 000F47E7 (0x8 bytes), align: 1
  Segment part 8.             Intra module refs:   Fontx5x7_table
           ENTRY                   ADDRESS         REF BY
           =====                   =======         ======
           Fontx5x7_char_6         000F47E0 
    -------------------------------------------------------------------------
NEAR_CONST
  Relative segment, address: 000F47E8 - 000F47EF (0x8 bytes), align: 1
  Segment part 9.             Intra module refs:   Fontx5x7_table
           ENTRY                   ADDRESS         REF BY
           =====                   =======         ======
           Fontx5x7_char_7         000F47E8 
    -------------------------------------------------------------------------
NEAR_CONST
  Relative segment, address: 000F47F0 - 000F47F7 (0x8 bytes), align: 1
  Segment part 10.            Intra module refs:   Fontx5x7_table
           ENTRY                   ADDRESS         REF BY
           =====                   =======         ======
           Fontx5x7_char_8         000F47F0 
    -------------------------------------------------------------------------
NEAR_CONST
  Relative segment, address: 000F47F8 - 000F47FF (0x8 bytes), align: 1
  Segment part 11.            Intra module refs:   Fontx5x7_table
           ENTRY                   ADDRESS         REF BY
           =====                   =======         ======
           Fontx5x7_char_9         000F47F8 
    -------------------------------------------------------------------------
NEAR_CONST
  Relative segment, address: 000F4800 - 000F4807 (0x8 bytes), align: 1
  Segment part 12.            Intra module refs:   Fontx5x7_table
           ENTRY                   ADDRESS         REF BY
           =====                   =======         ======
           Fontx5x7_char_10        000F4800 
    -------------------------------------------------------------------------
NEAR_CONST
  Relative segment, address: 000F4808 - 000F480F (0x8 bytes), align: 1
  Segment part 13.            Intra module refs:   Fontx5x7_table
           ENTRY                   ADDRESS         REF BY
           =====                   =======         ======
           Fontx5x7_char_11        000F4808 
    -------------------------------------------------------------------------
NEAR_CONST
  Relative segment, address: 000F4810 - 000F4817 (0x8 bytes), align: 1
  Segment part 14.            Intra module refs:   Fontx5x7_table
           ENTRY                   ADDRESS         REF BY
           =====                   =======         ======
           Fontx5x7_char_12        000F4810 
    -------------------------------------------------------------------------
NEAR_CONST
  Relative segment, address: 000F4818 - 000F481F (0x8 bytes), align: 1
  Segment part 15.            Intra module refs:   Fontx5x7_table
           ENTRY                   ADDRESS         REF BY
           =====                   =======         ======
           Fontx5x7_char_13        000F4818 
    -------------------------------------------------------------------------
NEAR_CONST
  Relative segment, address: 000F4820 - 000F4827 (0x8 bytes), align: 1
  Segment part 16.            Intra module refs:   Fontx5x7_table
           ENTRY                   ADDRESS         REF BY
           =====                   =======         ======
           Fontx5x7_char_14        000F4820 
    -------------------------------------------------------------------------
NEAR_CONST
  Relative segment, address: 000F4828 - 000F482F (0x8 bytes), align: 1
  Segment part 17.            Intra module refs:   Fontx5x7_table
           ENTRY                   ADDRESS         REF BY
           =====                   =======         ======
           Fontx5x7_char_15        000F4828 
    -------------------------------------------------------------------------
NEAR_CONST
  Relative segment, address: 000F4830 - 000F4837 (0x8 bytes), align: 1
  Segment part 18.            Intra module refs:   Fontx5x7_table
           ENTRY                   ADDRESS         REF BY
           =====                   =======         ======
           Fontx5x7_char_16        000F4830 
    -------------------------------------------------------------------------
NEAR_CONST
  Relative segment, address: 000F4838 - 000F483F (0x8 bytes), align: 1
  Segment part 19.            Intra module refs:   Fontx5x7_table
           ENTRY                   ADDRESS         REF BY
           =====                   =======         ======
           Fontx5x7_char_17        000F4838 
    -------------------------------------------------------------------------
NEAR_CONST
  Relative segment, address: 000F4840 - 000F4847 (0x8 bytes), align: 1
  Segment part 20.            Intra module refs:   Fontx5x7_table
           ENTRY                   ADDRESS         REF BY
           =====                   =======         ======
           Fontx5x7_char_18        000F4840 
    -------------------------------------------------------------------------
NEAR_CONST
  Relative segment, address: 000F4848 - 000F484F (0x8 bytes), align: 1
  Segment part 21.            Intra module refs:   Fontx5x7_table
           ENTRY                   ADDRESS         REF BY
           =====                   =======         ======
           Fontx5x7_char_19        000F4848 
    -------------------------------------------------------------------------
NEAR_CONST
  Relative segment, address: 000F4850 - 000F4857 (0x8 bytes), align: 1
  Segment part 22.            Intra module refs:   Fontx5x7_table
           ENTRY                   ADDRESS         REF BY
           =====                   =======         ======
           Fontx5x7_char_20        000F4850 
    -------------------------------------------------------------------------
NEAR_CONST
  Relative segment, address: 000F4858 - 000F485F (0x8 bytes), align: 1
  Segment part 23.            Intra module refs:   Fontx5x7_table
           ENTRY                   ADDRESS         REF BY
           =====                   =======         ======
           Fontx5x7_char_21        000F4858 
    -------------------------------------------------------------------------
NEAR_CONST
  Relative segment, address: 000F4860 - 000F4867 (0x8 bytes), align: 1
  Segment part 24.            Intra module refs:   Fontx5x7_table
           ENTRY                   ADDRESS         REF BY
           =====                   =======         ======
           Fontx5x7_char_22        000F4860 
    -------------------------------------------------------------------------
NEAR_CONST
  Relative segment, address: 000F4868 - 000F486F (0x8 bytes), align: 1
  Segment part 25.            Intra module refs:   Fontx5x7_table
           ENTRY                   ADDRESS         REF BY
           =====                   =======         ======
           Fontx5x7_char_23        000F4868 
    -------------------------------------------------------------------------
NEAR_CONST
  Relative segment, address: 000F4870 - 000F4877 (0x8 bytes), align: 1
  Segment part 26.            Intra module refs:   Fontx5x7_table
           ENTRY                   ADDRESS         REF BY
           =====                   =======         ======
           Fontx5x7_char_24        000F4870 
    -------------------------------------------------------------------------
NEAR_CONST
  Relative segment, address: 000F4878 - 000F487F (0x8 bytes), align: 1
  Segment part 27.            Intra module refs:   Fontx5x7_table
           ENTRY                   ADDRESS         REF BY
           =====                   =======         ======
           Fontx5x7_char_25        000F4878 
    -------------------------------------------------------------------------
NEAR_CONST
  Relative segment, address: 000F4880 - 000F4887 (0x8 bytes), align: 1
  Segment part 28.            Intra module refs:   Fontx5x7_table
           ENTRY                   ADDRESS         REF BY
           =====                   =======         ======
           Fontx5x7_char_26        000F4880 
    -------------------------------------------------------------------------
NEAR_CONST
  Relative segment, address: 000F4888 - 000F488F (0x8 bytes), align: 1
  Segment part 29.            Intra module refs:   Fontx5x7_table
           ENTRY                   ADDRESS         REF BY
           =====                   =======         ======
           Fontx5x7_char_27        000F4888 
    -------------------------------------------------------------------------
NEAR_CONST
  Relative segment, address: 000F4890 - 000F4897 (0x8 bytes), align: 1
  Segment part 30.            Intra module refs:   Fontx5x7_table
           ENTRY                   ADDRESS         REF BY
           =====                   =======         ======
           Fontx5x7_char_28        000F4890 
    -------------------------------------------------------------------------
NEAR_CONST
  Relative segment, address: 000F4898 - 000F489F (0x8 bytes), align: 1
  Segment part 31.            Intra module refs:   Fontx5x7_table
           ENTRY                   ADDRESS         REF BY
           =====                   =======         ======
           Fontx5x7_char_29        000F4898 
    -------------------------------------------------------------------------
NEAR_CONST
  Relative segment, address: 000F48A0 - 000F48A7 (0x8 bytes), align: 1
  Segment part 32.            Intra module refs:   Fontx5x7_table
           ENTRY                   ADDRESS         REF BY
           =====                   =======         ======
           Fontx5x7_char_30        000F48A0 
    -------------------------------------------------------------------------
NEAR_CONST
  Relative segment, address: 000F48A8 - 000F48AF (0x8 bytes), align: 1
  Segment part 33.            Intra module refs:   Fontx5x7_table
           ENTRY                   ADDRESS         REF BY
           =====                   =======         ======
           Fontx5x7_char_31        000F48A8 
    -------------------------------------------------------------------------
NEAR_CONST
  Relative segment, address: 000F48B0 - 000F48B7 (0x8 bytes), align: 1
  Segment part 34.            Intra module refs:   Fontx5x7_table
           ENTRY                   ADDRESS         REF BY
           =====                   =======         ======
           Fontx5x7_char_32        000F48B0 
    -------------------------------------------------------------------------
NEAR_CONST
  Relative segment, address: 000F48B8 - 000F48BF (0x8 bytes), align: 1
  Segment part 35.            Intra module refs:   Fontx5x7_table
           ENTRY                   ADDRESS         REF BY
           =====                   =======         ======
           Fontx5x7_char_33        000F48B8 
    -------------------------------------------------------------------------
NEAR_CONST
  Relative segment, address: 000F48C0 - 000F48C7 (0x8 bytes), align: 1
  Segment part 36.            Intra module refs:   Fontx5x7_table
           ENTRY                   ADDRESS         REF BY
           =====                   =======         ======
           Fontx5x7_char_34        000F48C0 
    -------------------------------------------------------------------------
NEAR_CONST
  Relative segment, address: 000F48C8 - 000F48CF (0x8 bytes), align: 1
  Segment part 37.            Intra module refs:   Fontx5x7_table
           ENTRY                   ADDRESS         REF BY
           =====                   =======         ======
           Fontx5x7_char_35        000F48C8 
    -------------------------------------------------------------------------
NEAR_CONST
  Relative segment, address: 000F48D0 - 000F48D7 (0x8 bytes), align: 1
  Segment part 38.            Intra module refs:   Fontx5x7_table
           ENTRY                   ADDRESS         REF BY
           =====                   =======         ======
           Fontx5x7_char_36        000F48D0 
    -------------------------------------------------------------------------
NEAR_CONST
  Relative segment, address: 000F48D8 - 000F48DF (0x8 bytes), align: 1
  Segment part 39.            Intra module refs:   Fontx5x7_table
           ENTRY                   ADDRESS         REF BY
           =====                   =======         ======
           Fontx5x7_char_37        000F48D8 
    -------------------------------------------------------------------------
NEAR_CONST
  Relative segment, address: 000F48E0 - 000F48E7 (0x8 bytes), align: 1
  Segment part 40.            Intra module refs:   Fontx5x7_table
           ENTRY                   ADDRESS         REF BY
           =====                   =======         ======
           Fontx5x7_char_38        000F48E0 
    -------------------------------------------------------------------------
NEAR_CONST
  Relative segment, address: 000F48E8 - 000F48EF (0x8 bytes), align: 1
  Segment part 41.            Intra module refs:   Fontx5x7_table
           ENTRY                   ADDRESS         REF BY
           =====                   =======         ======
           Fontx5x7_char_39        000F48E8 
    -------------------------------------------------------------------------
NEAR_CONST
  Relative segment, address: 000F48F0 - 000F48F7 (0x8 bytes), align: 1
  Segment part 42.            Intra module refs:   Fontx5x7_table
           ENTRY                   ADDRESS         REF BY
           =====                   =======         ======
           Fontx5x7_char_40        000F48F0 
    -------------------------------------------------------------------------
NEAR_CONST
  Relative segment, address: 000F48F8 - 000F48FF (0x8 bytes), align: 1
  Segment part 43.            Intra module refs:   Fontx5x7_table
           ENTRY                   ADDRESS         REF BY
           =====                   =======         ======
           Fontx5x7_char_41        000F48F8 
    -------------------------------------------------------------------------
NEAR_CONST
  Relative segment, address: 000F4900 - 000F4907 (0x8 bytes), align: 1
  Segment part 44.            Intra module refs:   Fontx5x7_table
           ENTRY                   ADDRESS         REF BY
           =====                   =======         ======
           Fontx5x7_char_42        000F4900 
    -------------------------------------------------------------------------
NEAR_CONST
  Relative segment, address: 000F4908 - 000F490F (0x8 bytes), align: 1
  Segment part 45.            Intra module refs:   Fontx5x7_table
           ENTRY                   ADDRESS         REF BY
           =====                   =======         ======
           Fontx5x7_char_43        000F4908 
    -------------------------------------------------------------------------
NEAR_CONST
  Relative segment, address: 000F4910 - 000F4917 (0x8 bytes), align: 1
  Segment part 46.            Intra module refs:   Fontx5x7_table
           ENTRY                   ADDRESS         REF BY
           =====                   =======         ======
           Fontx5x7_char_44        000F4910 
    -------------------------------------------------------------------------
NEAR_CONST
  Relative segment, address: 000F4918 - 000F491F (0x8 bytes), align: 1
  Segment part 47.            Intra module refs:   Fontx5x7_table
           ENTRY                   ADDRESS         REF BY
           =====                   =======         ======
           Fontx5x7_char_45        000F4918 
    -------------------------------------------------------------------------
NEAR_CONST
  Relative segment, address: 000F4920 - 000F4927 (0x8 bytes), align: 1
  Segment part 48.            Intra module refs:   Fontx5x7_table
           ENTRY                   ADDRESS         REF BY
           =====                   =======         ======
           Fontx5x7_char_46        000F4920 
    -------------------------------------------------------------------------
NEAR_CONST
  Relative segment, address: 000F4928 - 000F492F (0x8 bytes), align: 1
  Segment part 49.            Intra module refs:   Fontx5x7_table
           ENTRY                   ADDRESS         REF BY
           =====                   =======         ======
           Fontx5x7_char_47        000F4928 
    -------------------------------------------------------------------------
NEAR_CONST
  Relative segment, address: 000F4930 - 000F4937 (0x8 bytes), align: 1
  Segment part 50.            Intra module refs:   Fontx5x7_table
           ENTRY                   ADDRESS         REF BY
           =====                   =======         ======
           Fontx5x7_char_48        000F4930 
    -------------------------------------------------------------------------
NEAR_CONST
  Relative segment, address: 000F4938 - 000F493F (0x8 bytes), align: 1
  Segment part 51.            Intra module refs:   Fontx5x7_table
           ENTRY                   ADDRESS         REF BY
           =====                   =======         ======
           Fontx5x7_char_49        000F4938 
    -------------------------------------------------------------------------
NEAR_CONST
  Relative segment, address: 000F4940 - 000F4947 (0x8 bytes), align: 1
  Segment part 52.            Intra module refs:   Fontx5x7_table
           ENTRY                   ADDRESS         REF BY
           =====                   =======         ======
           Fontx5x7_char_50        000F4940 
    -------------------------------------------------------------------------
NEAR_CONST
  Relative segment, address: 000F4948 - 000F494F (0x8 bytes), align: 1
  Segment part 53.            Intra module refs:   Fontx5x7_table
           ENTRY                   ADDRESS         REF BY
           =====                   =======         ======
           Fontx5x7_char_51        000F4948 
    -------------------------------------------------------------------------
NEAR_CONST
  Relative segment, address: 000F4950 - 000F4957 (0x8 bytes), align: 1
  Segment part 54.            Intra module refs:   Fontx5x7_table
           ENTRY                   ADDRESS         REF BY
           =====                   =======         ======
           Fontx5x7_char_52        000F4950 
    -------------------------------------------------------------------------
NEAR_CONST
  Relative segment, address: 000F4958 - 000F495F (0x8 bytes), align: 1
  Segment part 55.            Intra module refs:   Fontx5x7_table
           ENTRY                   ADDRESS         REF BY
           =====                   =======         ======
           Fontx5x7_char_53        000F4958 
    -------------------------------------------------------------------------
NEAR_CONST
  Relative segment, address: 000F4960 - 000F4967 (0x8 bytes), align: 1
  Segment part 56.            Intra module refs:   Fontx5x7_table
           ENTRY                   ADDRESS         REF BY
           =====                   =======         ======
           Fontx5x7_char_54        000F4960 
    -------------------------------------------------------------------------
NEAR_CONST
  Relative segment, address: 000F4968 - 000F496F (0x8 bytes), align: 1
  Segment part 57.            Intra module refs:   Fontx5x7_table
           ENTRY                   ADDRESS         REF BY
           =====                   =======         ======
           Fontx5x7_char_55        000F4968 
    -------------------------------------------------------------------------
NEAR_CONST
  Relative segment, address: 000F4970 - 000F4977 (0x8 bytes), align: 1
  Segment part 58.            Intra module refs:   Fontx5x7_table
           ENTRY                   ADDRESS         REF BY
           =====                   =======         ======
           Fontx5x7_char_56        000F4970 
    -------------------------------------------------------------------------
NEAR_CONST
  Relative segment, address: 000F4978 - 000F497F (0x8 bytes), align: 1
  Segment part 59.            Intra module refs:   Fontx5x7_table
           ENTRY                   ADDRESS         REF BY
           =====                   =======         ======
           Fontx5x7_char_57        000F4978 
    -------------------------------------------------------------------------
NEAR_CONST
  Relative segment, address: 000F4980 - 000F4987 (0x8 bytes), align: 1
  Segment part 60.            Intra module refs:   Fontx5x7_table
           ENTRY                   ADDRESS         REF BY
           =====                   =======         ======
           Fontx5x7_char_58        000F4980 
    -------------------------------------------------------------------------
NEAR_CONST
  Relative segment, address: 000F4988 - 000F498F (0x8 bytes), align: 1
  Segment part 61.            Intra module refs:   Fontx5x7_table
           ENTRY                   ADDRESS         REF BY
           =====                   =======         ======
           Fontx5x7_char_59        000F4988 
    -------------------------------------------------------------------------
NEAR_CONST
  Relative segment, address: 000F4990 - 000F4997 (0x8 bytes), align: 1
  Segment part 62.            Intra module refs:   Fontx5x7_table
           ENTRY                   ADDRESS         REF BY
           =====                   =======         ======
           Fontx5x7_char_60        000F4990 
    -------------------------------------------------------------------------
NEAR_CONST
  Relative segment, address: 000F4998 - 000F499F (0x8 bytes), align: 1
  Segment part 63.            Intra module refs:   Fontx5x7_table
           ENTRY                   ADDRESS         REF BY
           =====                   =======         ======
           Fontx5x7_char_61        000F4998 
    -------------------------------------------------------------------------
NEAR_CONST
  Relative segment, address: 000F49A0 - 000F49A7 (0x8 bytes), align: 1
  Segment part 64.            Intra module refs:   Fontx5x7_table
           ENTRY                   ADDRESS         REF BY
           =====                   =======         ======
           Fontx5x7_char_62        000F49A0 
    -------------------------------------------------------------------------
NEAR_CONST
  Relative segment, address: 000F49A8 - 000F49AF (0x8 bytes), align: 1
  Segment part 65.            Intra module refs:   Fontx5x7_table
           ENTRY                   ADDRESS         REF BY
           =====                   =======         ======
           Fontx5x7_char_63        000F49A8 
    -------------------------------------------------------------------------
NEAR_CONST
  Relative segment, address: 000F49B0 - 000F49B7 (0x8 bytes), align: 1
  Segment part 66.            Intra module refs:   Fontx5x7_table
           ENTRY                   ADDRESS         REF BY
           =====                   =======         ======
           Fontx5x7_char_64        000F49B0 
    -------------------------------------------------------------------------
NEAR_CONST
  Relative segment, address: 000F49B8 - 000F49BF (0x8 bytes), align: 1
  Segment part 67.            Intra module refs:   Fontx5x7_table
           ENTRY                   ADDRESS         REF BY
           =====                   =======         ======
           Fontx5x7_char_65        000F49B8 
    -------------------------------------------------------------------------
NEAR_CONST
  Relative segment, address: 000F49C0 - 000F49C7 (0x8 bytes), align: 1
  Segment part 68.            Intra module refs:   Fontx5x7_table
           ENTRY                   ADDRESS         REF BY
           =====                   =======         ======
           Fontx5x7_char_66        000F49C0 
    -------------------------------------------------------------------------
NEAR_CONST
  Relative segment, address: 000F49C8 - 000F49CF (0x8 bytes), align: 1
  Segment part 69.            Intra module refs:   Fontx5x7_table
           ENTRY                   ADDRESS         REF BY
           =====                   =======         ======
           Fontx5x7_char_67        000F49C8 
    -------------------------------------------------------------------------
NEAR_CONST
  Relative segment, address: 000F49D0 - 000F49D7 (0x8 bytes), align: 1
  Segment part 70.            Intra module refs:   Fontx5x7_table
           ENTRY                   ADDRESS         REF BY
           =====                   =======         ======
           Fontx5x7_char_68        000F49D0 
    -------------------------------------------------------------------------
NEAR_CONST
  Relative segment, address: 000F49D8 - 000F49DF (0x8 bytes), align: 1
  Segment part 71.            Intra module refs:   Fontx5x7_table
           ENTRY                   ADDRESS         REF BY
           =====                   =======         ======
           Fontx5x7_char_69        000F49D8 
    -------------------------------------------------------------------------
NEAR_CONST
  Relative segment, address: 000F49E0 - 000F49E7 (0x8 bytes), align: 1
  Segment part 72.            Intra module refs:   Fontx5x7_table
           ENTRY                   ADDRESS         REF BY
           =====                   =======         ======
           Fontx5x7_char_70        000F49E0 
    -------------------------------------------------------------------------
NEAR_CONST
  Relative segment, address: 000F49E8 - 000F49EF (0x8 bytes), align: 1
  Segment part 73.            Intra module refs:   Fontx5x7_table
           ENTRY                   ADDRESS         REF BY
           =====                   =======         ======
           Fontx5x7_char_71        000F49E8 
    -------------------------------------------------------------------------
NEAR_CONST
  Relative segment, address: 000F49F0 - 000F49F7 (0x8 bytes), align: 1
  Segment part 74.            Intra module refs:   Fontx5x7_table
           ENTRY                   ADDRESS         REF BY
           =====                   =======         ======
           Fontx5x7_char_72        000F49F0 
    -------------------------------------------------------------------------
NEAR_CONST
  Relative segment, address: 000F49F8 - 000F49FF (0x8 bytes), align: 1
  Segment part 75.            Intra module refs:   Fontx5x7_table
           ENTRY                   ADDRESS         REF BY
           =====                   =======         ======
           Fontx5x7_char_73        000F49F8 
    -------------------------------------------------------------------------
NEAR_CONST
  Relative segment, address: 000F4A00 - 000F4A07 (0x8 bytes), align: 1
  Segment part 76.            Intra module refs:   Fontx5x7_table
           ENTRY                   ADDRESS         REF BY
           =====                   =======         ======
           Fontx5x7_char_74        000F4A00 
    -------------------------------------------------------------------------
NEAR_CONST
  Relative segment, address: 000F4A08 - 000F4A0F (0x8 bytes), align: 1
  Segment part 77.            Intra module refs:   Fontx5x7_table
           ENTRY                   ADDRESS         REF BY
           =====                   =======         ======
           Fontx5x7_char_75        000F4A08 
    -------------------------------------------------------------------------
NEAR_CONST
  Relative segment, address: 000F4A10 - 000F4A17 (0x8 bytes), align: 1
  Segment part 78.            Intra module refs:   Fontx5x7_table
           ENTRY                   ADDRESS         REF BY
           =====                   =======         ======
           Fontx5x7_char_76        000F4A10 
    -------------------------------------------------------------------------
NEAR_CONST
  Relative segment, address: 000F4A18 - 000F4A1F (0x8 bytes), align: 1
  Segment part 79.            Intra module refs:   Fontx5x7_table
           ENTRY                   ADDRESS         REF BY
           =====                   =======         ======
           Fontx5x7_char_77        000F4A18 
    -------------------------------------------------------------------------
NEAR_CONST
  Relative segment, address: 000F4A20 - 000F4A27 (0x8 bytes), align: 1
  Segment part 80.            Intra module refs:   Fontx5x7_table
           ENTRY                   ADDRESS         REF BY
           =====                   =======         ======
           Fontx5x7_char_78        000F4A20 
    -------------------------------------------------------------------------
NEAR_CONST
  Relative segment, address: 000F4A28 - 000F4A2F (0x8 bytes), align: 1
  Segment part 81.            Intra module refs:   Fontx5x7_table
           ENTRY                   ADDRESS         REF BY
           =====                   =======         ======
           Fontx5x7_char_79        000F4A28 
    -------------------------------------------------------------------------
NEAR_CONST
  Relative segment, address: 000F4A30 - 000F4A37 (0x8 bytes), align: 1
  Segment part 82.            Intra module refs:   Fontx5x7_table
           ENTRY                   ADDRESS         REF BY
           =====                   =======         ======
           Fontx5x7_char_80        000F4A30 
    -------------------------------------------------------------------------
NEAR_CONST
  Relative segment, address: 000F4A38 - 000F4A3F (0x8 bytes), align: 1
  Segment part 83.            Intra module refs:   Fontx5x7_table
           ENTRY                   ADDRESS         REF BY
           =====                   =======         ======
           Fontx5x7_char_81        000F4A38 
    -------------------------------------------------------------------------
NEAR_CONST
  Relative segment, address: 000F4A40 - 000F4A47 (0x8 bytes), align: 1
  Segment part 84.            Intra module refs:   Fontx5x7_table
           ENTRY                   ADDRESS         REF BY
           =====                   =======         ======
           Fontx5x7_char_82        000F4A40 
    -------------------------------------------------------------------------
NEAR_CONST
  Relative segment, address: 000F4A48 - 000F4A4F (0x8 bytes), align: 1
  Segment part 85.            Intra module refs:   Fontx5x7_table
           ENTRY                   ADDRESS         REF BY
           =====                   =======         ======
           Fontx5x7_char_83        000F4A48 
    -------------------------------------------------------------------------
NEAR_CONST
  Relative segment, address: 000F4A50 - 000F4A57 (0x8 bytes), align: 1
  Segment part 86.            Intra module refs:   Fontx5x7_table
           ENTRY                   ADDRESS         REF BY
           =====                   =======         ======
           Fontx5x7_char_84        000F4A50 
    -------------------------------------------------------------------------
NEAR_CONST
  Relative segment, address: 000F4A58 - 000F4A5F (0x8 bytes), align: 1
  Segment part 87.            Intra module refs:   Fontx5x7_table
           ENTRY                   ADDRESS         REF BY
           =====                   =======         ======
           Fontx5x7_char_85        000F4A58 
    -------------------------------------------------------------------------
NEAR_CONST
  Relative segment, address: 000F4A60 - 000F4A67 (0x8 bytes), align: 1
  Segment part 88.            Intra module refs:   Fontx5x7_table
           ENTRY                   ADDRESS         REF BY
           =====                   =======         ======
           Fontx5x7_char_86        000F4A60 
    -------------------------------------------------------------------------
NEAR_CONST
  Relative segment, address: 000F4A68 - 000F4A6F (0x8 bytes), align: 1
  Segment part 89.            Intra module refs:   Fontx5x7_table
           ENTRY                   ADDRESS         REF BY
           =====                   =======         ======
           Fontx5x7_char_87        000F4A68 
    -------------------------------------------------------------------------
NEAR_CONST
  Relative segment, address: 000F4A70 - 000F4A77 (0x8 bytes), align: 1
  Segment part 90.            Intra module refs:   Fontx5x7_table
           ENTRY                   ADDRESS         REF BY
           =====                   =======         ======
           Fontx5x7_char_88        000F4A70 
    -------------------------------------------------------------------------
NEAR_CONST
  Relative segment, address: 000F4A78 - 000F4A7F (0x8 bytes), align: 1
  Segment part 91.            Intra module refs:   Fontx5x7_table
           ENTRY                   ADDRESS         REF BY
           =====                   =======         ======
           Fontx5x7_char_89        000F4A78 
    -------------------------------------------------------------------------
NEAR_CONST
  Relative segment, address: 000F4A80 - 000F4A87 (0x8 bytes), align: 1
  Segment part 92.            Intra module refs:   Fontx5x7_table
           ENTRY                   ADDRESS         REF BY
           =====                   =======         ======
           Fontx5x7_char_90        000F4A80 
    -------------------------------------------------------------------------
NEAR_CONST
  Relative segment, address: 000F4A88 - 000F4A8F (0x8 bytes), align: 1
  Segment part 93.            Intra module refs:   Fontx5x7_table
           ENTRY                   ADDRESS         REF BY
           =====                   =======         ======
           Fontx5x7_char_91        000F4A88 
    -------------------------------------------------------------------------
NEAR_CONST
  Relative segment, address: 000F4A90 - 000F4A97 (0x8 bytes), align: 1
  Segment part 94.            Intra module refs:   Fontx5x7_table
           ENTRY                   ADDRESS         REF BY
           =====                   =======         ======
           Fontx5x7_char_92        000F4A90 
    -------------------------------------------------------------------------
NEAR_CONST
  Relative segment, address: 000F4A98 - 000F4A9F (0x8 bytes), align: 1
  Segment part 95.            Intra module refs:   Fontx5x7_table
           ENTRY                   ADDRESS         REF BY
           =====                   =======         ======
           Fontx5x7_char_93        000F4A98 
    -------------------------------------------------------------------------
NEAR_CONST
  Relative segment, address: 000F4AA0 - 000F4AA7 (0x8 bytes), align: 1
  Segment part 96.            Intra module refs:   Fontx5x7_table
           ENTRY                   ADDRESS         REF BY
           =====                   =======         ======
           Fontx5x7_char_94        000F4AA0 
    -------------------------------------------------------------------------
NEAR_CONST
  Relative segment, address: 000F4AA8 - 000F4AAF (0x8 bytes), align: 1
  Segment part 97.            Intra module refs:   Fontx5x7_table
           ENTRY                   ADDRESS         REF BY
           =====                   =======         ======
           Fontx5x7_char_95        000F4AA8 
    -------------------------------------------------------------------------
NEAR_CONST
  Relative segment, address: 000F4AB0 - 000F4AB7 (0x8 bytes), align: 1
  Segment part 98.            Intra module refs:   Fontx5x7_table
           ENTRY                   ADDRESS         REF BY
           =====                   =======         ======
           Fontx5x7_char_96        000F4AB0 
    -------------------------------------------------------------------------
NEAR_CONST
  Relative segment, address: 000F4AB8 - 000F4ABF (0x8 bytes), align: 1
  Segment part 99.            Intra module refs:   Fontx5x7_table
           ENTRY                   ADDRESS         REF BY
           =====                   =======         ======
           Fontx5x7_char_97        000F4AB8 
    -------------------------------------------------------------------------
NEAR_CONST
  Relative segment, address: 000F4AC0 - 000F4AC7 (0x8 bytes), align: 1
  Segment part 100.           Intra module refs:   Fontx5x7_table
           ENTRY                   ADDRESS         REF BY
           =====                   =======         ======
           Fontx5x7_char_98        000F4AC0 
    -------------------------------------------------------------------------
NEAR_CONST
  Relative segment, address: 000F4AC8 - 000F4ACF (0x8 bytes), align: 1
  Segment part 101.           Intra module refs:   Fontx5x7_table
           ENTRY                   ADDRESS         REF BY
           =====                   =======         ======
           Fontx5x7_char_99        000F4AC8 
    -------------------------------------------------------------------------
NEAR_CONST
  Relative segment, address: 000F4AD0 - 000F4AD7 (0x8 bytes), align: 1
  Segment part 102.           Intra module refs:   Fontx5x7_table
           ENTRY                   ADDRESS         REF BY
           =====                   =======         ======
           Fontx5x7_char_100       000F4AD0 
    -------------------------------------------------------------------------
NEAR_CONST
  Relative segment, address: 000F4AD8 - 000F4ADF (0x8 bytes), align: 1
  Segment part 103.           Intra module refs:   Fontx5x7_table
           ENTRY                   ADDRESS         REF BY
           =====                   =======         ======
           Fontx5x7_char_101       000F4AD8 
    -------------------------------------------------------------------------
NEAR_CONST
  Relative segment, address: 000F4AE0 - 000F4AE7 (0x8 bytes), align: 1
  Segment part 104.           Intra module refs:   Fontx5x7_table
           ENTRY                   ADDRESS         REF BY
           =====                   =======         ======
           Fontx5x7_char_102       000F4AE0 
    -------------------------------------------------------------------------
NEAR_CONST
  Relative segment, address: 000F4AE8 - 000F4AEF (0x8 bytes), align: 1
  Segment part 105.           Intra module refs:   Fontx5x7_table
           ENTRY                   ADDRESS         REF BY
           =====                   =======         ======
           Fontx5x7_char_103       000F4AE8 
    -------------------------------------------------------------------------
NEAR_CONST
  Relative segment, address: 000F4AF0 - 000F4AF7 (0x8 bytes), align: 1
  Segment part 106.           Intra module refs:   Fontx5x7_table
           ENTRY                   ADDRESS         REF BY
           =====                   =======         ======
           Fontx5x7_char_104       000F4AF0 
    -------------------------------------------------------------------------
NEAR_CONST
  Relative segment, address: 000F4AF8 - 000F4AFF (0x8 bytes), align: 1
  Segment part 107.           Intra module refs:   Fontx5x7_table
           ENTRY                   ADDRESS         REF BY
           =====                   =======         ======
           Fontx5x7_char_105       000F4AF8 
    -------------------------------------------------------------------------
NEAR_CONST
  Relative segment, address: 000F4B00 - 000F4B07 (0x8 bytes), align: 1
  Segment part 108.           Intra module refs:   Fontx5x7_table
           ENTRY                   ADDRESS         REF BY
           =====                   =======         ======
           Fontx5x7_char_106       000F4B00 
    -------------------------------------------------------------------------
NEAR_CONST
  Relative segment, address: 000F4B08 - 000F4B0F (0x8 bytes), align: 1
  Segment part 109.           Intra module refs:   Fontx5x7_table
           ENTRY                   ADDRESS         REF BY
           =====                   =======         ======
           Fontx5x7_char_107       000F4B08 
    -------------------------------------------------------------------------
NEAR_CONST
  Relative segment, address: 000F4B10 - 000F4B17 (0x8 bytes), align: 1
  Segment part 110.           Intra module refs:   Fontx5x7_table
           ENTRY                   ADDRESS         REF BY
           =====                   =======         ======
           Fontx5x7_char_108       000F4B10 
    -------------------------------------------------------------------------
NEAR_CONST
  Relative segment, address: 000F4B18 - 000F4B1F (0x8 bytes), align: 1
  Segment part 111.           Intra module refs:   Fontx5x7_table
           ENTRY                   ADDRESS         REF BY
           =====                   =======         ======
           Fontx5x7_char_109       000F4B18 
    -------------------------------------------------------------------------
NEAR_CONST
  Relative segment, address: 000F4B20 - 000F4B27 (0x8 bytes), align: 1
  Segment part 112.           Intra module refs:   Fontx5x7_table
           ENTRY                   ADDRESS         REF BY
           =====                   =======         ======
           Fontx5x7_char_110       000F4B20 
    -------------------------------------------------------------------------
NEAR_CONST
  Relative segment, address: 000F4B28 - 000F4B2F (0x8 bytes), align: 1
  Segment part 113.           Intra module refs:   Fontx5x7_table
           ENTRY                   ADDRESS         REF BY
           =====                   =======         ======
           Fontx5x7_char_111       000F4B28 
    -------------------------------------------------------------------------
NEAR_CONST
  Relative segment, address: 000F4B30 - 000F4B37 (0x8 bytes), align: 1
  Segment part 114.           Intra module refs:   Fontx5x7_table
           ENTRY                   ADDRESS         REF BY
           =====                   =======         ======
           Fontx5x7_char_112       000F4B30 
    -------------------------------------------------------------------------
NEAR_CONST
  Relative segment, address: 000F4B38 - 000F4B3F (0x8 bytes), align: 1
  Segment part 115.           Intra module refs:   Fontx5x7_table
           ENTRY                   ADDRESS         REF BY
           =====                   =======         ======
           Fontx5x7_char_113       000F4B38 
    -------------------------------------------------------------------------
NEAR_CONST
  Relative segment, address: 000F4B40 - 000F4B47 (0x8 bytes), align: 1
  Segment part 116.           Intra module refs:   Fontx5x7_table
           ENTRY                   ADDRESS         REF BY
           =====                   =======         ======
           Fontx5x7_char_114       000F4B40 
    -------------------------------------------------------------------------
NEAR_CONST
  Relative segment, address: 000F4B48 - 000F4B4F (0x8 bytes), align: 1
  Segment part 117.           Intra module refs:   Fontx5x7_table
           ENTRY                   ADDRESS         REF BY
           =====                   =======         ======
           Fontx5x7_char_115       000F4B48 
    -------------------------------------------------------------------------
NEAR_CONST
  Relative segment, address: 000F4B50 - 000F4B57 (0x8 bytes), align: 1
  Segment part 118.           Intra module refs:   Fontx5x7_table
           ENTRY                   ADDRESS         REF BY
           =====                   =======         ======
           Fontx5x7_char_116       000F4B50 
    -------------------------------------------------------------------------
NEAR_CONST
  Relative segment, address: 000F4B58 - 000F4B5F (0x8 bytes), align: 1
  Segment part 119.           Intra module refs:   Fontx5x7_table
           ENTRY                   ADDRESS         REF BY
           =====                   =======         ======
           Fontx5x7_char_117       000F4B58 
    -------------------------------------------------------------------------
NEAR_CONST
  Relative segment, address: 000F4B60 - 000F4B67 (0x8 bytes), align: 1
  Segment part 120.           Intra module refs:   Fontx5x7_table
           ENTRY                   ADDRESS         REF BY
           =====                   =======         ======
           Fontx5x7_char_118       000F4B60 
    -------------------------------------------------------------------------
NEAR_CONST
  Relative segment, address: 000F4B68 - 000F4B6F (0x8 bytes), align: 1
  Segment part 121.           Intra module refs:   Fontx5x7_table
           ENTRY                   ADDRESS         REF BY
           =====                   =======         ======
           Fontx5x7_char_119       000F4B68 
    -------------------------------------------------------------------------
NEAR_CONST
  Relative segment, address: 000F4B70 - 000F4B77 (0x8 bytes), align: 1
  Segment part 122.           Intra module refs:   Fontx5x7_table
           ENTRY                   ADDRESS         REF BY
           =====                   =======         ======
           Fontx5x7_char_120       000F4B70 
    -------------------------------------------------------------------------
NEAR_CONST
  Relative segment, address: 000F4B78 - 000F4B7F (0x8 bytes), align: 1
  Segment part 123.           Intra module refs:   Fontx5x7_table
           ENTRY                   ADDRESS         REF BY
           =====                   =======         ======
           Fontx5x7_char_121       000F4B78 
    -------------------------------------------------------------------------
NEAR_CONST
  Relative segment, address: 000F4B80 - 000F4B87 (0x8 bytes), align: 1
  Segment part 124.           Intra module refs:   Fontx5x7_table
           ENTRY                   ADDRESS         REF BY
           =====                   =======         ======
           Fontx5x7_char_122       000F4B80 
    -------------------------------------------------------------------------
NEAR_CONST
  Relative segment, address: 000F4B88 - 000F4B8F (0x8 bytes), align: 1
  Segment part 125.           Intra module refs:   Fontx5x7_table
           ENTRY                   ADDRESS         REF BY
           =====                   =======         ======
           Fontx5x7_char_123       000F4B88 
    -------------------------------------------------------------------------
NEAR_CONST
  Relative segment, address: 000F4B90 - 000F4B97 (0x8 bytes), align: 1
  Segment part 126.           Intra module refs:   Fontx5x7_table
           ENTRY                   ADDRESS         REF BY
           =====                   =======         ======
           Fontx5x7_char_124       000F4B90 
    -------------------------------------------------------------------------
NEAR_CONST
  Relative segment, address: 000F4B98 - 000F4B9F (0x8 bytes), align: 1
  Segment part 127.           Intra module refs:   Fontx5x7_table
           ENTRY                   ADDRESS         REF BY
           =====                   =======         ======
           Fontx5x7_char_125       000F4B98 
    -------------------------------------------------------------------------
NEAR_CONST
  Relative segment, address: 000F4BA0 - 000F4BA7 (0x8 bytes), align: 1
  Segment part 128.           Intra module refs:   Fontx5x7_table
           ENTRY                   ADDRESS         REF BY
           =====                   =======         ======
           Fontx5x7_char_126       000F4BA0 
    -------------------------------------------------------------------------
NEAR_CONST
  Relative segment, address: 000F4BA8 - 000F4DA7 (0x200 bytes), align: 1
  Segment part 129.
           ENTRY                   ADDRESS         REF BY
           =====                   =======         ======
           Fontx5x7_table          000F4BA8        ST7579_Write (ST7579_LCD)
    -------------------------------------------------------------------------
NEAR_CONST_ID
  Relative segment, address: 000047B0 - 000047B7 (0x8 bytes), align: 1
  Segment part 130.           Intra module refs:   Fontx5x7_char_0
    -------------------------------------------------------------------------
NEAR_CONST_ID
  Relative segment, address: 000047B8 - 000047BF (0x8 bytes), align: 1
  Segment part 131.           Intra module refs:   Fontx5x7_char_1
    -------------------------------------------------------------------------
NEAR_CONST_ID
  Relative segment, address: 000047C0 - 000047C7 (0x8 bytes), align: 1
  Segment part 132.           Intra module refs:   Fontx5x7_char_2
    -------------------------------------------------------------------------
NEAR_CONST_ID
  Relative segment, address: 000047C8 - 000047CF (0x8 bytes), align: 1
  Segment part 133.           Intra module refs:   Fontx5x7_char_3
    -------------------------------------------------------------------------
NEAR_CONST_ID
  Relative segment, address: 000047D0 - 000047D7 (0x8 bytes), align: 1
  Segment part 134.           Intra module refs:   Fontx5x7_char_4
    -------------------------------------------------------------------------
NEAR_CONST_ID
  Relative segment, address: 000047D8 - 000047DF (0x8 bytes), align: 1
  Segment part 135.           Intra module refs:   Fontx5x7_char_5
    -------------------------------------------------------------------------
NEAR_CONST_ID
  Relative segment, address: 000047E0 - 000047E7 (0x8 bytes), align: 1
  Segment part 136.           Intra module refs:   Fontx5x7_char_6
    -------------------------------------------------------------------------
NEAR_CONST_ID
  Relative segment, address: 000047E8 - 000047EF (0x8 bytes), align: 1
  Segment part 137.           Intra module refs:   Fontx5x7_char_7
    -------------------------------------------------------------------------
NEAR_CONST_ID
  Relative segment, address: 000047F0 - 000047F7 (0x8 bytes), align: 1
  Segment part 138.           Intra module refs:   Fontx5x7_char_8
    -------------------------------------------------------------------------
NEAR_CONST_ID
  Relative segment, address: 000047F8 - 000047FF (0x8 bytes), align: 1
  Segment part 139.           Intra module refs:   Fontx5x7_char_9
    -------------------------------------------------------------------------
NEAR_CONST_ID
  Relative segment, address: 00004800 - 00004807 (0x8 bytes), align: 1
  Segment part 140.           Intra module refs:   Fontx5x7_char_10
    -------------------------------------------------------------------------
NEAR_CONST_ID
  Relative segment, address: 00004808 - 0000480F (0x8 bytes), align: 1
  Segment part 141.           Intra module refs:   Fontx5x7_char_11
    -------------------------------------------------------------------------
NEAR_CONST_ID
  Relative segment, address: 00004810 - 00004817 (0x8 bytes), align: 1
  Segment part 142.           Intra module refs:   Fontx5x7_char_12
    -------------------------------------------------------------------------
NEAR_CONST_ID
  Relative segment, address: 00004818 - 0000481F (0x8 bytes), align: 1
  Segment part 143.           Intra module refs:   Fontx5x7_char_13
    -------------------------------------------------------------------------
NEAR_CONST_ID
  Relative segment, address: 00004820 - 00004827 (0x8 bytes), align: 1
  Segment part 144.           Intra module refs:   Fontx5x7_char_14
    -------------------------------------------------------------------------
NEAR_CONST_ID
  Relative segment, address: 00004828 - 0000482F (0x8 bytes), align: 1
  Segment part 145.           Intra module refs:   Fontx5x7_char_15
    -------------------------------------------------------------------------
NEAR_CONST_ID
  Relative segment, address: 00004830 - 00004837 (0x8 bytes), align: 1
  Segment part 146.           Intra module refs:   Fontx5x7_char_16
    -------------------------------------------------------------------------
NEAR_CONST_ID
  Relative segment, address: 00004838 - 0000483F (0x8 bytes), align: 1
  Segment part 147.           Intra module refs:   Fontx5x7_char_17
    -------------------------------------------------------------------------
NEAR_CONST_ID
  Relative segment, address: 00004840 - 00004847 (0x8 bytes), align: 1
  Segment part 148.           Intra module refs:   Fontx5x7_char_18
    -------------------------------------------------------------------------
NEAR_CONST_ID
  Relative segment, address: 00004848 - 0000484F (0x8 bytes), align: 1
  Segment part 149.           Intra module refs:   Fontx5x7_char_19
    -------------------------------------------------------------------------
NEAR_CONST_ID
  Relative segment, address: 00004850 - 00004857 (0x8 bytes), align: 1
  Segment part 150.           Intra module refs:   Fontx5x7_char_20
    -------------------------------------------------------------------------
NEAR_CONST_ID
  Relative segment, address: 00004858 - 0000485F (0x8 bytes), align: 1
  Segment part 151.           Intra module refs:   Fontx5x7_char_21
    -------------------------------------------------------------------------
NEAR_CONST_ID
  Relative segment, address: 00004860 - 00004867 (0x8 bytes), align: 1
  Segment part 152.           Intra module refs:   Fontx5x7_char_22
    -------------------------------------------------------------------------
NEAR_CONST_ID
  Relative segment, address: 00004868 - 0000486F (0x8 bytes), align: 1
  Segment part 153.           Intra module refs:   Fontx5x7_char_23
    -------------------------------------------------------------------------
NEAR_CONST_ID
  Relative segment, address: 00004870 - 00004877 (0x8 bytes), align: 1
  Segment part 154.           Intra module refs:   Fontx5x7_char_24
    -------------------------------------------------------------------------
NEAR_CONST_ID
  Relative segment, address: 00004878 - 0000487F (0x8 bytes), align: 1
  Segment part 155.           Intra module refs:   Fontx5x7_char_25
    -------------------------------------------------------------------------
NEAR_CONST_ID
  Relative segment, address: 00004880 - 00004887 (0x8 bytes), align: 1
  Segment part 156.           Intra module refs:   Fontx5x7_char_26
    -------------------------------------------------------------------------
NEAR_CONST_ID
  Relative segment, address: 00004888 - 0000488F (0x8 bytes), align: 1
  Segment part 157.           Intra module refs:   Fontx5x7_char_27
    -------------------------------------------------------------------------
NEAR_CONST_ID
  Relative segment, address: 00004890 - 00004897 (0x8 bytes), align: 1
  Segment part 158.           Intra module refs:   Fontx5x7_char_28
    -------------------------------------------------------------------------
NEAR_CONST_ID
  Relative segment, address: 00004898 - 0000489F (0x8 bytes), align: 1
  Segment part 159.           Intra module refs:   Fontx5x7_char_29
    -------------------------------------------------------------------------
NEAR_CONST_ID
  Relative segment, address: 000048A0 - 000048A7 (0x8 bytes), align: 1
  Segment part 160.           Intra module refs:   Fontx5x7_char_30
    -------------------------------------------------------------------------
NEAR_CONST_ID
  Relative segment, address: 000048A8 - 000048AF (0x8 bytes), align: 1
  Segment part 161.           Intra module refs:   Fontx5x7_char_31
    -------------------------------------------------------------------------
NEAR_CONST_ID
  Relative segment, address: 000048B0 - 000048B7 (0x8 bytes), align: 1
  Segment part 162.           Intra module refs:   Fontx5x7_char_32
    -------------------------------------------------------------------------
NEAR_CONST_ID
  Relative segment, address: 000048B8 - 000048BF (0x8 bytes), align: 1
  Segment part 163.           Intra module refs:   Fontx5x7_char_33
    -------------------------------------------------------------------------
NEAR_CONST_ID
  Relative segment, address: 000048C0 - 000048C7 (0x8 bytes), align: 1
  Segment part 164.           Intra module refs:   Fontx5x7_char_34
    -------------------------------------------------------------------------
NEAR_CONST_ID
  Relative segment, address: 000048C8 - 000048CF (0x8 bytes), align: 1
  Segment part 165.           Intra module refs:   Fontx5x7_char_35
    -------------------------------------------------------------------------
NEAR_CONST_ID
  Relative segment, address: 000048D0 - 000048D7 (0x8 bytes), align: 1
  Segment part 166.           Intra module refs:   Fontx5x7_char_36
    -------------------------------------------------------------------------
NEAR_CONST_ID
  Relative segment, address: 000048D8 - 000048DF (0x8 bytes), align: 1
  Segment part 167.           Intra module refs:   Fontx5x7_char_37
    -------------------------------------------------------------------------
NEAR_CONST_ID
  Relative segment, address: 000048E0 - 000048E7 (0x8 bytes), align: 1
  Segment part 168.           Intra module refs:   Fontx5x7_char_38
    -------------------------------------------------------------------------
NEAR_CONST_ID
  Relative segment, address: 000048E8 - 000048EF (0x8 bytes), align: 1
  Segment part 169.           Intra module refs:   Fontx5x7_char_39
    -------------------------------------------------------------------------
NEAR_CONST_ID
  Relative segment, address: 000048F0 - 000048F7 (0x8 bytes), align: 1
  Segment part 170.           Intra module refs:   Fontx5x7_char_40
    -------------------------------------------------------------------------
NEAR_CONST_ID
  Relative segment, address: 000048F8 - 000048FF (0x8 bytes), align: 1
  Segment part 171.           Intra module refs:   Fontx5x7_char_41
    -------------------------------------------------------------------------
NEAR_CONST_ID
  Relative segment, address: 00004900 - 00004907 (0x8 bytes), align: 1
  Segment part 172.           Intra module refs:   Fontx5x7_char_42
    -------------------------------------------------------------------------
NEAR_CONST_ID
  Relative segment, address: 00004908 - 0000490F (0x8 bytes), align: 1
  Segment part 173.           Intra module refs:   Fontx5x7_char_43
    -------------------------------------------------------------------------
NEAR_CONST_ID
  Relative segment, address: 00004910 - 00004917 (0x8 bytes), align: 1
  Segment part 174.           Intra module refs:   Fontx5x7_char_44
    -------------------------------------------------------------------------
NEAR_CONST_ID
  Relative segment, address: 00004918 - 0000491F (0x8 bytes), align: 1
  Segment part 175.           Intra module refs:   Fontx5x7_char_45
    -------------------------------------------------------------------------
NEAR_CONST_ID
  Relative segment, address: 00004920 - 00004927 (0x8 bytes), align: 1
  Segment part 176.           Intra module refs:   Fontx5x7_char_46
    -------------------------------------------------------------------------
NEAR_CONST_ID
  Relative segment, address: 00004928 - 0000492F (0x8 bytes), align: 1
  Segment part 177.           Intra module refs:   Fontx5x7_char_47
    -------------------------------------------------------------------------
NEAR_CONST_ID
  Relative segment, address: 00004930 - 00004937 (0x8 bytes), align: 1
  Segment part 178.           Intra module refs:   Fontx5x7_char_48
    -------------------------------------------------------------------------
NEAR_CONST_ID
  Relative segment, address: 00004938 - 0000493F (0x8 bytes), align: 1
  Segment part 179.           Intra module refs:   Fontx5x7_char_49
    -------------------------------------------------------------------------
NEAR_CONST_ID
  Relative segment, address: 00004940 - 00004947 (0x8 bytes), align: 1
  Segment part 180.           Intra module refs:   Fontx5x7_char_50
    -------------------------------------------------------------------------
NEAR_CONST_ID
  Relative segment, address: 00004948 - 0000494F (0x8 bytes), align: 1
  Segment part 181.           Intra module refs:   Fontx5x7_char_51
    -------------------------------------------------------------------------
NEAR_CONST_ID
  Relative segment, address: 00004950 - 00004957 (0x8 bytes), align: 1
  Segment part 182.           Intra module refs:   Fontx5x7_char_52
    -------------------------------------------------------------------------
NEAR_CONST_ID
  Relative segment, address: 00004958 - 0000495F (0x8 bytes), align: 1
  Segment part 183.           Intra module refs:   Fontx5x7_char_53
    -------------------------------------------------------------------------
NEAR_CONST_ID
  Relative segment, address: 00004960 - 00004967 (0x8 bytes), align: 1
  Segment part 184.           Intra module refs:   Fontx5x7_char_54
    -------------------------------------------------------------------------
NEAR_CONST_ID
  Relative segment, address: 00004968 - 0000496F (0x8 bytes), align: 1
  Segment part 185.           Intra module refs:   Fontx5x7_char_55
    -------------------------------------------------------------------------
NEAR_CONST_ID
  Relative segment, address: 00004970 - 00004977 (0x8 bytes), align: 1
  Segment part 186.           Intra module refs:   Fontx5x7_char_56
    -------------------------------------------------------------------------
NEAR_CONST_ID
  Relative segment, address: 00004978 - 0000497F (0x8 bytes), align: 1
  Segment part 187.           Intra module refs:   Fontx5x7_char_57
    -------------------------------------------------------------------------
NEAR_CONST_ID
  Relative segment, address: 00004980 - 00004987 (0x8 bytes), align: 1
  Segment part 188.           Intra module refs:   Fontx5x7_char_58
    -------------------------------------------------------------------------
NEAR_CONST_ID
  Relative segment, address: 00004988 - 0000498F (0x8 bytes), align: 1
  Segment part 189.           Intra module refs:   Fontx5x7_char_59
    -------------------------------------------------------------------------
NEAR_CONST_ID
  Relative segment, address: 00004990 - 00004997 (0x8 bytes), align: 1
  Segment part 190.           Intra module refs:   Fontx5x7_char_60
    -------------------------------------------------------------------------
NEAR_CONST_ID
  Relative segment, address: 00004998 - 0000499F (0x8 bytes), align: 1
  Segment part 191.           Intra module refs:   Fontx5x7_char_61
    -------------------------------------------------------------------------
NEAR_CONST_ID
  Relative segment, address: 000049A0 - 000049A7 (0x8 bytes), align: 1
  Segment part 192.           Intra module refs:   Fontx5x7_char_62
    -------------------------------------------------------------------------
NEAR_CONST_ID
  Relative segment, address: 000049A8 - 000049AF (0x8 bytes), align: 1
  Segment part 193.           Intra module refs:   Fontx5x7_char_63
    -------------------------------------------------------------------------
NEAR_CONST_ID
  Relative segment, address: 000049B0 - 000049B7 (0x8 bytes), align: 1
  Segment part 194.           Intra module refs:   Fontx5x7_char_64
    -------------------------------------------------------------------------
NEAR_CONST_ID
  Relative segment, address: 000049B8 - 000049BF (0x8 bytes), align: 1
  Segment part 195.           Intra module refs:   Fontx5x7_char_65
    -------------------------------------------------------------------------
NEAR_CONST_ID
  Relative segment, address: 000049C0 - 000049C7 (0x8 bytes), align: 1
  Segment part 196.           Intra module refs:   Fontx5x7_char_66
    -------------------------------------------------------------------------
NEAR_CONST_ID
  Relative segment, address: 000049C8 - 000049CF (0x8 bytes), align: 1
  Segment part 197.           Intra module refs:   Fontx5x7_char_67
    -------------------------------------------------------------------------
NEAR_CONST_ID
  Relative segment, address: 000049D0 - 000049D7 (0x8 bytes), align: 1
  Segment part 198.           Intra module refs:   Fontx5x7_char_68
    -------------------------------------------------------------------------
NEAR_CONST_ID
  Relative segment, address: 000049D8 - 000049DF (0x8 bytes), align: 1
  Segment part 199.           Intra module refs:   Fontx5x7_char_69
    -------------------------------------------------------------------------
NEAR_CONST_ID
  Relative segment, address: 000049E0 - 000049E7 (0x8 bytes), align: 1
  Segment part 200.           Intra module refs:   Fontx5x7_char_70
    -------------------------------------------------------------------------
NEAR_CONST_ID
  Relative segment, address: 000049E8 - 000049EF (0x8 bytes), align: 1
  Segment part 201.           Intra module refs:   Fontx5x7_char_71
    -------------------------------------------------------------------------
NEAR_CONST_ID
  Relative segment, address: 000049F0 - 000049F7 (0x8 bytes), align: 1
  Segment part 202.           Intra module refs:   Fontx5x7_char_72
    -------------------------------------------------------------------------
NEAR_CONST_ID
  Relative segment, address: 000049F8 - 000049FF (0x8 bytes), align: 1
  Segment part 203.           Intra module refs:   Fontx5x7_char_73
    -------------------------------------------------------------------------
NEAR_CONST_ID
  Relative segment, address: 00004A00 - 00004A07 (0x8 bytes), align: 1
  Segment part 204.           Intra module refs:   Fontx5x7_char_74
    -------------------------------------------------------------------------
NEAR_CONST_ID
  Relative segment, address: 00004A08 - 00004A0F (0x8 bytes), align: 1
  Segment part 205.           Intra module refs:   Fontx5x7_char_75
    -------------------------------------------------------------------------
NEAR_CONST_ID
  Relative segment, address: 00004A10 - 00004A17 (0x8 bytes), align: 1
  Segment part 206.           Intra module refs:   Fontx5x7_char_76
    -------------------------------------------------------------------------
NEAR_CONST_ID
  Relative segment, address: 00004A18 - 00004A1F (0x8 bytes), align: 1
  Segment part 207.           Intra module refs:   Fontx5x7_char_77
    -------------------------------------------------------------------------
NEAR_CONST_ID
  Relative segment, address: 00004A20 - 00004A27 (0x8 bytes), align: 1
  Segment part 208.           Intra module refs:   Fontx5x7_char_78
    -------------------------------------------------------------------------
NEAR_CONST_ID
  Relative segment, address: 00004A28 - 00004A2F (0x8 bytes), align: 1
  Segment part 209.           Intra module refs:   Fontx5x7_char_79
    -------------------------------------------------------------------------
NEAR_CONST_ID
  Relative segment, address: 00004A30 - 00004A37 (0x8 bytes), align: 1
  Segment part 210.           Intra module refs:   Fontx5x7_char_80
    -------------------------------------------------------------------------
NEAR_CONST_ID
  Relative segment, address: 00004A38 - 00004A3F (0x8 bytes), align: 1
  Segment part 211.           Intra module refs:   Fontx5x7_char_81
    -------------------------------------------------------------------------
NEAR_CONST_ID
  Relative segment, address: 00004A40 - 00004A47 (0x8 bytes), align: 1
  Segment part 212.           Intra module refs:   Fontx5x7_char_82
    -------------------------------------------------------------------------
NEAR_CONST_ID
  Relative segment, address: 00004A48 - 00004A4F (0x8 bytes), align: 1
  Segment part 213.           Intra module refs:   Fontx5x7_char_83
    -------------------------------------------------------------------------
NEAR_CONST_ID
  Relative segment, address: 00004A50 - 00004A57 (0x8 bytes), align: 1
  Segment part 214.           Intra module refs:   Fontx5x7_char_84
    -------------------------------------------------------------------------
NEAR_CONST_ID
  Relative segment, address: 00004A58 - 00004A5F (0x8 bytes), align: 1
  Segment part 215.           Intra module refs:   Fontx5x7_char_85
    -------------------------------------------------------------------------
NEAR_CONST_ID
  Relative segment, address: 00004A60 - 00004A67 (0x8 bytes), align: 1
  Segment part 216.           Intra module refs:   Fontx5x7_char_86
    -------------------------------------------------------------------------
NEAR_CONST_ID
  Relative segment, address: 00004A68 - 00004A6F (0x8 bytes), align: 1
  Segment part 217.           Intra module refs:   Fontx5x7_char_87
    -------------------------------------------------------------------------
NEAR_CONST_ID
  Relative segment, address: 00004A70 - 00004A77 (0x8 bytes), align: 1
  Segment part 218.           Intra module refs:   Fontx5x7_char_88
    -------------------------------------------------------------------------
NEAR_CONST_ID
  Relative segment, address: 00004A78 - 00004A7F (0x8 bytes), align: 1
  Segment part 219.           Intra module refs:   Fontx5x7_char_89
    -------------------------------------------------------------------------
NEAR_CONST_ID
  Relative segment, address: 00004A80 - 00004A87 (0x8 bytes), align: 1
  Segment part 220.           Intra module refs:   Fontx5x7_char_90
    -------------------------------------------------------------------------
NEAR_CONST_ID
  Relative segment, address: 00004A88 - 00004A8F (0x8 bytes), align: 1
  Segment part 221.           Intra module refs:   Fontx5x7_char_91
    -------------------------------------------------------------------------
NEAR_CONST_ID
  Relative segment, address: 00004A90 - 00004A97 (0x8 bytes), align: 1
  Segment part 222.           Intra module refs:   Fontx5x7_char_92
    -------------------------------------------------------------------------
NEAR_CONST_ID
  Relative segment, address: 00004A98 - 00004A9F (0x8 bytes), align: 1
  Segment part 223.           Intra module refs:   Fontx5x7_char_93
    -------------------------------------------------------------------------
NEAR_CONST_ID
  Relative segment, address: 00004AA0 - 00004AA7 (0x8 bytes), align: 1
  Segment part 224.           Intra module refs:   Fontx5x7_char_94
    -------------------------------------------------------------------------
NEAR_CONST_ID
  Relative segment, address: 00004AA8 - 00004AAF (0x8 bytes), align: 1
  Segment part 225.           Intra module refs:   Fontx5x7_char_95
    -------------------------------------------------------------------------
NEAR_CONST_ID
  Relative segment, address: 00004AB0 - 00004AB7 (0x8 bytes), align: 1
  Segment part 226.           Intra module refs:   Fontx5x7_char_96
    -------------------------------------------------------------------------
NEAR_CONST_ID
  Relative segment, address: 00004AB8 - 00004ABF (0x8 bytes), align: 1
  Segment part 227.           Intra module refs:   Fontx5x7_char_97
    -------------------------------------------------------------------------
NEAR_CONST_ID
  Relative segment, address: 00004AC0 - 00004AC7 (0x8 bytes), align: 1
  Segment part 228.           Intra module refs:   Fontx5x7_char_98
    -------------------------------------------------------------------------
NEAR_CONST_ID
  Relative segment, address: 00004AC8 - 00004ACF (0x8 bytes), align: 1
  Segment part 229.           Intra module refs:   Fontx5x7_char_99
    -------------------------------------------------------------------------
NEAR_CONST_ID
  Relative segment, address: 00004AD0 - 00004AD7 (0x8 bytes), align: 1
  Segment part 230.           Intra module refs:   Fontx5x7_char_100
    -------------------------------------------------------------------------
NEAR_CONST_ID
  Relative segment, address: 00004AD8 - 00004ADF (0x8 bytes), align: 1
  Segment part 231.           Intra module refs:   Fontx5x7_char_101
    -------------------------------------------------------------------------
NEAR_CONST_ID
  Relative segment, address: 00004AE0 - 00004AE7 (0x8 bytes), align: 1
  Segment part 232.           Intra module refs:   Fontx5x7_char_102
    -------------------------------------------------------------------------
NEAR_CONST_ID
  Relative segment, address: 00004AE8 - 00004AEF (0x8 bytes), align: 1
  Segment part 233.           Intra module refs:   Fontx5x7_char_103
    -------------------------------------------------------------------------
NEAR_CONST_ID
  Relative segment, address: 00004AF0 - 00004AF7 (0x8 bytes), align: 1
  Segment part 234.           Intra module refs:   Fontx5x7_char_104
    -------------------------------------------------------------------------
NEAR_CONST_ID
  Relative segment, address: 00004AF8 - 00004AFF (0x8 bytes), align: 1
  Segment part 235.           Intra module refs:   Fontx5x7_char_105
    -------------------------------------------------------------------------
NEAR_CONST_ID
  Relative segment, address: 00004B00 - 00004B07 (0x8 bytes), align: 1
  Segment part 236.           Intra module refs:   Fontx5x7_char_106
    -------------------------------------------------------------------------
NEAR_CONST_ID
  Relative segment, address: 00004B08 - 00004B0F (0x8 bytes), align: 1
  Segment part 237.           Intra module refs:   Fontx5x7_char_107
    -------------------------------------------------------------------------
NEAR_CONST_ID
  Relative segment, address: 00004B10 - 00004B17 (0x8 bytes), align: 1
  Segment part 238.           Intra module refs:   Fontx5x7_char_108
    -------------------------------------------------------------------------
NEAR_CONST_ID
  Relative segment, address: 00004B18 - 00004B1F (0x8 bytes), align: 1
  Segment part 239.           Intra module refs:   Fontx5x7_char_109
    -------------------------------------------------------------------------
NEAR_CONST_ID
  Relative segment, address: 00004B20 - 00004B27 (0x8 bytes), align: 1
  Segment part 240.           Intra module refs:   Fontx5x7_char_110
    -------------------------------------------------------------------------
NEAR_CONST_ID
  Relative segment, address: 00004B28 - 00004B2F (0x8 bytes), align: 1
  Segment part 241.           Intra module refs:   Fontx5x7_char_111
    -------------------------------------------------------------------------
NEAR_CONST_ID
  Relative segment, address: 00004B30 - 00004B37 (0x8 bytes), align: 1
  Segment part 242.           Intra module refs:   Fontx5x7_char_112
    -------------------------------------------------------------------------
NEAR_CONST_ID
  Relative segment, address: 00004B38 - 00004B3F (0x8 bytes), align: 1
  Segment part 243.           Intra module refs:   Fontx5x7_char_113
    -------------------------------------------------------------------------
NEAR_CONST_ID
  Relative segment, address: 00004B40 - 00004B47 (0x8 bytes), align: 1
  Segment part 244.           Intra module refs:   Fontx5x7_char_114
    -------------------------------------------------------------------------
NEAR_CONST_ID
  Relative segment, address: 00004B48 - 00004B4F (0x8 bytes), align: 1
  Segment part 245.           Intra module refs:   Fontx5x7_char_115
    -------------------------------------------------------------------------
NEAR_CONST_ID
  Relative segment, address: 00004B50 - 00004B57 (0x8 bytes), align: 1
  Segment part 246.           Intra module refs:   Fontx5x7_char_116
    -------------------------------------------------------------------------
NEAR_CONST_ID
  Relative segment, address: 00004B58 - 00004B5F (0x8 bytes), align: 1
  Segment part 247.           Intra module refs:   Fontx5x7_char_117
    -------------------------------------------------------------------------
NEAR_CONST_ID
  Relative segment, address: 00004B60 - 00004B67 (0x8 bytes), align: 1
  Segment part 248.           Intra module refs:   Fontx5x7_char_118
    -------------------------------------------------------------------------
NEAR_CONST_ID
  Relative segment, address: 00004B68 - 00004B6F (0x8 bytes), align: 1
  Segment part 249.           Intra module refs:   Fontx5x7_char_119
    -------------------------------------------------------------------------
NEAR_CONST_ID
  Relative segment, address: 00004B70 - 00004B77 (0x8 bytes), align: 1
  Segment part 250.           Intra module refs:   Fontx5x7_char_120
    -------------------------------------------------------------------------
NEAR_CONST_ID
  Relative segment, address: 00004B78 - 00004B7F (0x8 bytes), align: 1
  Segment part 251.           Intra module refs:   Fontx5x7_char_121
    -------------------------------------------------------------------------
NEAR_CONST_ID
  Relative segment, address: 00004B80 - 00004B87 (0x8 bytes), align: 1
  Segment part 252.           Intra module refs:   Fontx5x7_char_122
    -------------------------------------------------------------------------
NEAR_CONST_ID
  Relative segment, address: 00004B88 - 00004B8F (0x8 bytes), align: 1
  Segment part 253.           Intra module refs:   Fontx5x7_char_123
    -------------------------------------------------------------------------
NEAR_CONST_ID
  Relative segment, address: 00004B90 - 00004B97 (0x8 bytes), align: 1
  Segment part 254.           Intra module refs:   Fontx5x7_char_124
    -------------------------------------------------------------------------
NEAR_CONST_ID
  Relative segment, address: 00004B98 - 00004B9F (0x8 bytes), align: 1
  Segment part 255.           Intra module refs:   Fontx5x7_char_125
    -------------------------------------------------------------------------
NEAR_CONST_ID
  Relative segment, address: 00004BA0 - 00004BA7 (0x8 bytes), align: 1
  Segment part 256.           Intra module refs:   Fontx5x7_char_126
    -------------------------------------------------------------------------
NEAR_CONST_ID
  Relative segment, address: 00004BA8 - 00004DA7 (0x200 bytes), align: 1
  Segment part 257.           Intra module refs:   Fontx5x7_table

    -------------------------------------------------------------------------
  LIBRARY MODULE, NAME : glyph

  SEGMENTS IN THE MODULE
  ======================
NEAR_Z
  Relative segment, address: 000FADE4 - 000FADE7 (0x4 bytes), align: 1
  Segment part 4.             Intra module refs:   GlyphOpen
           ENTRY                   ADDRESS         REF BY
           =====                   =======         ======
           G_glyphWorkspace        000FADE4 
    -------------------------------------------------------------------------
NEAR_Z
  Relative segment, address: 000FADE8 - 000FADED (0x6 bytes), align: 1
  Segment part 5.             Intra module refs:   GlyphOpen
           ENTRY                   ADDRESS         REF BY
           =====                   =======         ======
           G_commAPI               000FADE8 
    -------------------------------------------------------------------------
NEAR_Z
  Relative segment, address: 000FADEE - 000FAE19 (0x2c bytes), align: 1
  Segment part 6.             Intra module refs:   GlyphOpen
           ENTRY                   ADDRESS         REF BY
           =====                   =======         ======
           G_lcdAPI                000FADEE 
    -------------------------------------------------------------------------
CODE
  Relative segment, address: 0000955E - 000095A9 (0x4c bytes), align: 0
  Segment part 7.
           ENTRY                   ADDRESS         REF BY
           =====                   =======         ======
           GlyphOpen               0000955E        InitialiseLCD (lcd)
               calls direct and indirect
               CSTACK = 00000000 ( 00000006 )
    -------------------------------------------------------------------------
CODE
  Relative segment, address: 000095AA - 000095B2 (0x9 bytes), align: 0
  Segment part 16.            Intra module refs:   ?Subroutine8
    -------------------------------------------------------------------------
CODE
  Relative segment, address: 000095B3 - 000095DB (0x29 bytes), align: 0
  Segment part 17.
           ENTRY                   ADDRESS         REF BY
           =====                   =======         ======
           GlyphSetXY              000095B3        DisplayLCD (lcd)
               calls indirect
               CSTACK = 00000000 ( 00000004 )
    -------------------------------------------------------------------------
CODE
  Relative segment, address: 000095DC - 000095E5 (0xa bytes), align: 0
  Segment part 19.
           ENTRY                   ADDRESS         REF BY
           =====                   =======         ======
           GlyphSetFont            000095DC        InitialiseLCD (lcd)
                                                   LCDSelectFont (lcd)
               calls indirect
               CSTACK = 00000000 ( 00000004 )
    -------------------------------------------------------------------------
CODE
  Relative segment, address: 000095E6 - 000095F3 (0xe bytes), align: 0
  Segment part 20.            Intra module refs:   GlyphSetDrawMode
                                                   GlyphSetFont
           LOCAL                   ADDRESS         
           =====                   =======         
           ?Subroutine0            000095E6 
    -------------------------------------------------------------------------
CODE
  Relative segment, address: 000095F4 - 00009600 (0xd bytes), align: 0
  Segment part 22.            Intra module refs:   ?Subroutine3
                                                   GlyphEraseBlock
           ENTRY                   ADDRESS         REF BY
           =====                   =======         ======
           GlyphSetDrawMode        000095F4 
               calls indirect
               CSTACK = 00000004 ( 00000004 )
    -------------------------------------------------------------------------
CODE
  Relative segment, address: 00009601 - 00009607 (0x7 bytes), align: 0
  Segment part 23.            Intra module refs:   GlyphString
           ENTRY                   ADDRESS         REF BY
           =====                   =======         ======
           GlyphChar               00009601 
               calls indirect
               CSTACK = 00000006 ( 00000002 )
    -------------------------------------------------------------------------
CODE
  Relative segment, address: 00009608 - 0000960E (0x7 bytes), align: 0
  Segment part 24.            Intra module refs:   GlyphChar
           LOCAL                   ADDRESS         
           =====                   =======         
           ?Subroutine8            00009608 
    -------------------------------------------------------------------------
CODE
  Relative segment, address: 0000960F - 00009613 (0x5 bytes), align: 0
  Segment part 25.            Intra module refs:   ?Subroutine5
                                                   ?Subroutine8
           LOCAL                   ADDRESS         
           =====                   =======         
           ?Subroutine7            0000960F 
    -------------------------------------------------------------------------
CODE
  Relative segment, address: 00009614 - 00009632 (0x1f bytes), align: 0
  Segment part 26.
           ENTRY                   ADDRESS         REF BY
           =====                   =======         ======
           GlyphString             00009614        DisplayLCD (lcd)
               calls direct
               CSTACK = 00000000 ( 00000006 )
    -------------------------------------------------------------------------
CODE
  Relative segment, address: 00009633 - 00009637 (0x5 bytes), align: 0
  Segment part 29.
           ENTRY                   ADDRESS         REF BY
           =====                   =======         ======
           GlyphClearScreen        00009633        InitialiseLCD (lcd)
               calls direct
               CSTACK = 00000006 ( 00000002 )
    -------------------------------------------------------------------------
CODE
  Relative segment, address: 00009638 - 0000963D (0x6 bytes), align: 0
  Segment part 31.
           ENTRY                   ADDRESS         REF BY
           =====                   =======         ======
           GlyphNormalScreen       00009638        InitialiseLCD (lcd)
               calls direct
               CSTACK = 00000000 ( 00000002 )
    -------------------------------------------------------------------------
CODE
  Relative segment, address: 0000963E - 00009642 (0x5 bytes), align: 0
  Segment part 33.            Intra module refs:   GlyphClearScreen
                                                   GlyphNormalScreen
           LOCAL                   ADDRESS         
           =====                   =======         
           ?Subroutine3            0000963E 
    -------------------------------------------------------------------------
CODE
  Relative segment, address: 00009643 - 00009649 (0x7 bytes), align: 0
  Segment part 37.            Intra module refs:   GlyphEraseBlock
           LOCAL                   ADDRESS         
           =====                   =======         
           ?Subroutine4            00009643 
    -------------------------------------------------------------------------
CODE
  Relative segment, address: 0000964A - 0000964E (0x5 bytes), align: 0
  Segment part 38.            Intra module refs:   ?Subroutine0
                                                   GlyphEraseBlock
                                                   GlyphSetXY
           LOCAL                   ADDRESS         
           =====                   =======         
           ?Subroutine5            0000964A 
    -------------------------------------------------------------------------
CODE
  Relative segment, address: 0000964F - 000096B0 (0x62 bytes), align: 0
  Segment part 39.
           ENTRY                   ADDRESS         REF BY
           =====                   =======         ======
           GlyphEraseBlock         0000964F        DisplayLCD (lcd)
               calls direct and indirect
               CSTACK = 00000004 ( 00000004 )

    *************************************************************************

  FILE NAME : C:\Users\Steve\Dropbox\Kiln\CustomerProjects\RenesasDemo\Factory_Demo_Whisker\YRDKRL78G14\Debug\Obj\SPI _G14.r87
  PROGRAM MODULE, NAME : SPI _G14

  SEGMENTS IN THE MODULE
  ======================
NEAR_A
  Relative segment, address: 000F0146 - 000F0147 (0x2 bytes), align: 0
  Segment part 14. ROOT       Intra module refs:   SPI_ISRHandler
           ENTRY                   ADDRESS         REF BY
           =====                   =======         ======
           _A_SSR13                000F0146 
           LOCAL                   ADDRESS         
           =====                   =======         
           SSR13                   000F0146 
           SSR13L                  000F0146 
           SSR13L_bit              000F0146 
           SSR13_bit               000F0146 
    -------------------------------------------------------------------------
NEAR_A
  Relative segment, address: 000F0166 - 000F0167 (0x2 bytes), align: 0
  Segment part 20. ROOT       Intra module refs:   SPI_SetBitRate
           ENTRY                   ADDRESS         REF BY
           =====                   =======         ======
           _A_SPS1                 000F0166 
           LOCAL                   ADDRESS         
           =====                   =======         
           SPS1                    000F0166 
           SPS1L                   000F0166 
           SPS1L_bit               000F0166 
           SPS1_bit                000F0166 
    -------------------------------------------------------------------------
NEAR_Z
  Relative segment, address: 000FAFF1 - 000FAFF1 (0x1 bytes), align: 0
  Segment part 25.            Intra module refs:   SPI_ISRHandler
                                                   SPI_Init
                                                   SPI_IsBusy
                                                   SPI_Transfer
           LOCAL                   ADDRESS         
           =====                   =======         
           G_SPI_IsBusy            000FAFF1 
    -------------------------------------------------------------------------
NEAR_Z
  Relative segment, address: 000FAE1A - 000FAE1B (0x2 bytes), align: 1
  Segment part 26.            Intra module refs:   SPI_ISRHandler
                                                   SPI_Transfer
           LOCAL                   ADDRESS         
           =====                   =======         
           G_SPI_SendBuffer        000FAE1A 
    -------------------------------------------------------------------------
NEAR_Z
  Relative segment, address: 000FAE1C - 000FAE1D (0x2 bytes), align: 1
  Segment part 27.            Intra module refs:   SPI_ISRHandler
                                                   SPI_Transfer
           LOCAL                   ADDRESS         
           =====                   =======         
           G_SPI_ReceiveBuffer     000FAE1C 
    -------------------------------------------------------------------------
NEAR_Z
  Relative segment, address: 000FAE1E - 000FAE21 (0x4 bytes), align: 1
  Segment part 28.            Intra module refs:   SPI_ISRHandler
                                                   SPI_Transfer
           LOCAL                   ADDRESS         
           =====                   =======         
           G_SPI_SendIndex         000FAE1E 
    -------------------------------------------------------------------------
NEAR_Z
  Relative segment, address: 000FAE22 - 000FAE25 (0x4 bytes), align: 1
  Segment part 29.            Intra module refs:   SPI_ISRHandler
                                                   SPI_Transfer
           LOCAL                   ADDRESS         
           =====                   =======         
           G_SPI_SendLength        000FAE22 
    -------------------------------------------------------------------------
NEAR_Z
  Relative segment, address: 000FAE26 - 000FAE29 (0x4 bytes), align: 1
  Segment part 30.            Intra module refs:   SPI_ISRHandler
                                                   SPI_Transfer
           LOCAL                   ADDRESS         
           =====                   =======         
           G_SPI_ReceiveIndex      000FAE26 
    -------------------------------------------------------------------------
NEAR_Z
  Relative segment, address: 000FAFF2 - 000FAFF2 (0x1 bytes), align: 0
  Segment part 31.            Intra module refs:   SPI_ISRHandler
                                                   SPI_Transfer
           LOCAL                   ADDRESS         
           =====                   =======         
           G_SPI_Channel           000FAFF2 
    -------------------------------------------------------------------------
NEAR_Z
  Relative segment, address: 000FAE2A - 000FAE2B (0x2 bytes), align: 1
  Segment part 32.            Intra module refs:   SPI_ISRHandler
                                                   SPI_Transfer
           LOCAL                   ADDRESS         
           =====                   =======         
           G_SPI_Callback          000FAE2A 
    -------------------------------------------------------------------------
NEAR_Z
  Relative segment, address: 000FAFF3 - 000FAFF3 (0x1 bytes), align: 0
  Segment part 33.            Intra module refs:   SPI_ISRHandler
           LOCAL                   ADDRESS         
           =====                   =======         
           G_SPI_OverrunErrorCount
                                   000FAFF3 
    -------------------------------------------------------------------------
NEAR_Z
  Relative segment, address: 000FAE2C - 000FAE31 (0x6 bytes), align: 1
  Segment part 34.            Intra module refs:   SPI_CS_Assert
                                                   SPI_CS_Clear
                                                   SPI_ChannelSetup
           ENTRY                   ADDRESS         REF BY
           =====                   =======         ======
           G_SPI_CSActiveHigh      000FAE2C 
    -------------------------------------------------------------------------
NEAR_Z
  Relative segment, address: 000FAE32 - 000FAE37 (0x6 bytes), align: 1
  Segment part 35.            Intra module refs:   SPI_ChannelSetup
           ENTRY                   ADDRESS         REF BY
           =====                   =======         ======
           G_SPI_CSActivePerByte   000FAE32 
    -------------------------------------------------------------------------
NEAR_I
  Relative segment, address: 000F9FBE - 000F9FC7 (0xa bytes), align: 1
  Segment part 36.            Intra module refs:   SPI_CS_Assert
                                                   SPI_CS_Clear
           ENTRY                   ADDRESS         REF BY
           =====                   =======         ======
           SPI_CS_P                000F9FBE 
    -------------------------------------------------------------------------
NEAR_I
  Relative segment, address: 000F9FC8 - 000F9FD1 (0xa bytes), align: 1
  Segment part 38.            Intra module refs:   SPI_ChannelSetup
           ENTRY                   ADDRESS         REF BY
           =====                   =======         ======
           SPI_CS_PM               000F9FC8 
    -------------------------------------------------------------------------
NEAR_I
  Relative segment, address: 000F9FD2 - 000F9FD7 (0x6 bytes), align: 1
  Segment part 40.            Intra module refs:   SPI_CS_Assert
                                                   SPI_CS_Clear
                                                   SPI_ChannelSetup
           ENTRY                   ADDRESS         REF BY
           =====                   =======         ======
           SPI_CS_Pin              000F9FD2 
    -------------------------------------------------------------------------
CODE
  Relative segment, address: 000096B1 - 000096B7 (0x7 bytes), align: 0
  Segment part 42.            Intra module refs:   SPI_Init
                                                   SPI_Transfer
           ENTRY                   ADDRESS         REF BY
           =====                   =======         ======
           SPI_DisableInterrupts   000096B1 
    -------------------------------------------------------------------------
CODE
  Relative segment, address: 000096B8 - 000096BE (0x7 bytes), align: 0
  Segment part 43.            Intra module refs:   SPI_Init
                                                   SPI_Transfer
           ENTRY                   ADDRESS         REF BY
           =====                   =======         ======
           SPI_EnableInterrupts    000096B8 
    -------------------------------------------------------------------------
CODE
  Relative segment, address: 000096BF - 00009752 (0x94 bytes), align: 0
  Segment part 44.            Intra module refs:   SPI_Init
           ENTRY                   ADDRESS         REF BY
           =====                   =======         ======
           SPI_SetBitRate          000096BF 
               CSTACK = 00000000 ( 0000000C )
    -------------------------------------------------------------------------
CODE
  Relative segment, address: 00009753 - 000097D8 (0x86 bytes), align: 0
  Segment part 45.
           ENTRY                   ADDRESS         REF BY
           =====                   =======         ======
           SPI_Init                00009753        main (main)
               calls direct
               CSTACK = 00000000 ( 00000004 )
    -------------------------------------------------------------------------
CODE
  Relative segment, address: 000097D9 - 00009841 (0x69 bytes), align: 0
  Segment part 46.            Intra module refs:   SPI_ISRHandler
                                                   SPI_Transfer
           ENTRY                   ADDRESS         REF BY
           =====                   =======         ======
           SPI_CS_Assert           000097D9 
               CSTACK = 00000000 ( 00000004 )
    -------------------------------------------------------------------------
CODE
  Relative segment, address: 00009842 - 000098AA (0x69 bytes), align: 0
  Segment part 47.            Intra module refs:   SPI_ChannelSetup
                                                   SPI_ISRHandler
           ENTRY                   ADDRESS         REF BY
           =====                   =======         ======
           SPI_CS_Clear            00009842 
               CSTACK = 00000000 ( 00000004 )
    -------------------------------------------------------------------------
CODE
  Relative segment, address: 000098AB - 000098FC (0x52 bytes), align: 0
  Segment part 48.
           ENTRY                   ADDRESS         REF BY
           =====                   =======         ======
           SPI_ChannelSetup        000098AB        main (main)
               calls direct
               CSTACK = 00000000 ( 00000006 )
    -------------------------------------------------------------------------
CODE
  Relative segment, address: 000098FD - 000099A4 (0xa8 bytes), align: 0
  Segment part 49.
           ENTRY                   ADDRESS         REF BY
           =====                   =======         ======
           SPI_Transfer            000098FD        GainSpan_SPI_Update (GainSpan_SPI)
               calls direct
               CSTACK = 00000006 ( 00000006 )
    -------------------------------------------------------------------------
CODE
  Relative segment, address: 000099A5 - 000099A9 (0x5 bytes), align: 0
  Segment part 50.
           ENTRY                   ADDRESS         REF BY
           =====                   =======         ======
           SPI_IsBusy              000099A5        GainSpan_SPI_Update (GainSpan_SPI)
    -------------------------------------------------------------------------
CODE
  Relative segment, address: 000099AA - 00009A85 (0xdc bytes), align: 0
  Segment part 51.            Intra module refs:   SPI_ISRHandler::??INTVEC 62
           LOCAL                   ADDRESS         
           =====                   =======         
           SPI_ISRHandler          000099AA 
               interrupt function
               calls direct and indirect
               CSTACK = 00000000 ( 0000000A )
    -------------------------------------------------------------------------
INTVEC
  Common segment, address: 00000000 - 0000003F (0x40 bytes), align: 1
  Segment part 23. ROOT 
           LOCAL                   ADDRESS         
           =====                   =======         
           SPI_ISRHandler::??INTVEC 62
                                   0000003E 
    -------------------------------------------------------------------------
NEAR_ID
  Relative segment, address: 0000B6B4 - 0000B6BD (0xa bytes), align: 1
  Segment part 37.            Intra module refs:   SPI_CS_P
    -------------------------------------------------------------------------
NEAR_ID
  Relative segment, address: 0000B6BE - 0000B6C7 (0xa bytes), align: 1
  Segment part 39.            Intra module refs:   SPI_CS_PM
    -------------------------------------------------------------------------
NEAR_ID
  Relative segment, address: 0000B6C8 - 0000B6CD (0x6 bytes), align: 1
  Segment part 41.            Intra module refs:   SPI_CS_Pin

    *************************************************************************

  FILE NAME : C:\Users\Steve\Dropbox\Kiln\CustomerProjects\RenesasDemo\Factory_Demo_Whisker\YRDKRL78G14\Debug\Obj\Switch.r87
  PROGRAM MODULE, NAME : Switch

  SEGMENTS IN THE MODULE
  ======================
CODE
  Relative segment, address: 00009A86 - 00009A98 (0x13 bytes), align: 0
  Segment part 9.
           ENTRY                   ADDRESS         REF BY
           =====                   =======         ======
           Switch2IsPressed        00009A86        main (main)

    *************************************************************************

  FILE NAME : C:\Users\Steve\Dropbox\Kiln\CustomerProjects\RenesasDemo\Factory_Demo_Whisker\YRDKRL78G14\Debug\Obj\Temperature.r87
  PROGRAM MODULE, NAME : Temperature

  SEGMENTS IN THE MODULE
  ======================
CODE
  Relative segment, address: 00009A99 - 00009AF4 (0x5c bytes), align: 0
  Segment part 4.
           ENTRY                   ADDRESS         REF BY
           =====                   =======         ======
           Temperature_Init        00009A99        main (main)
               calls direct
               CSTACK = 00000000 ( 00000016 )
    -------------------------------------------------------------------------
NEAR_CONST
  Relative segment, address: 000F4DA8 - 000F4DA9 (0x2 bytes), align: 1
  Segment part 2.             Intra module refs:   Temperature_Init
    -------------------------------------------------------------------------
NEAR_CONST_ID
  Relative segment, address: 00004DA8 - 00004DA9 (0x2 bytes), align: 1
  Segment part 6.             Intra module refs:   Segment part 2

    *************************************************************************

  FILE NAME : C:\Users\Steve\Dropbox\Kiln\CustomerProjects\RenesasDemo\Factory_Demo_Whisker\YRDKRL78G14\Debug\Obj\Timer.r87
  PROGRAM MODULE, NAME : Timer

  SEGMENTS IN THE MODULE
  ======================
NEAR_A
  Relative segment, address: 000FFF90 - 000FFF91 (0x2 bytes), align: 0
  Segment part 1. ROOT        Intra module refs:   Timer_Start
           ENTRY                   ADDRESS         REF BY
           =====                   =======         ======
           _A_ITMC                 000FFF90 
           LOCAL                   ADDRESS         
           =====                   =======         
           ITMC                    000FFF90 
           ITMC_bit                000FFF90 
    -------------------------------------------------------------------------
NEAR_Z
  Relative segment, address: 000FAE38 - 000FAE39 (0x2 bytes), align: 1
  Segment part 9.             Intra module refs:   Interrupt_Timer
                                                   Timer_Start
           LOCAL                   ADDRESS         
           =====                   =======         
           G_Timer_ISR             000FAE38 
    -------------------------------------------------------------------------
CODE
  Relative segment, address: 00009AF5 - 00009B0E (0x1a bytes), align: 0
  Segment part 10.            Intra module refs:   Interrupt_Timer::??INTVEC 56
           LOCAL                   ADDRESS         
           =====                   =======         
           Interrupt_Timer         00009AF5 
               interrupt function
               calls direct and indirect
               CSTACK = 00000000 ( 00000006 )
    -------------------------------------------------------------------------
CODE
  Relative segment, address: 00009B0F - 00009B40 (0x32 bytes), align: 0
  Segment part 11.
           ENTRY                   ADDRESS         REF BY
           =====                   =======         ======
           Timer_Start             00009B0F        MSTimerInit (mstimer)
               CSTACK = 00000000 ( 00000002 )
    -------------------------------------------------------------------------
INTVEC
  Common segment, address: 00000000 - 00000039 (0x3a bytes), align: 1
  Segment part 7. ROOT 
           LOCAL                   ADDRESS         
           =====                   =======         
           Interrupt_Timer::??INTVEC 56
                                   00000038 

    *************************************************************************

  FILE NAME : C:\Users\Steve\Dropbox\Kiln\CustomerProjects\RenesasDemo\Factory_Demo_Whisker\YRDKRL78G14\Debug\Obj\UART.r87
  PROGRAM MODULE, NAME : UART

  SEGMENTS IN THE MODULE
  ======================
NEAR_A
  Relative segment, address: 000F0102 - 000F0103 (0x2 bytes), align: 0
  Segment part 20. ROOT       Intra module refs:   UART0_RXError_ISRHandler
           ENTRY                   ADDRESS         REF BY
           =====                   =======         ======
           _A_SSR01                000F0102 
           LOCAL                   ADDRESS         
           =====                   =======         
           SSR01                   000F0102 
           SSR01L                  000F0102 
           SSR01L_bit              000F0102 
           SSR01_bit               000F0102 
    -------------------------------------------------------------------------
NEAR_A
  Relative segment, address: 000F0106 - 000F0107 (0x2 bytes), align: 0
  Segment part 21. ROOT       Intra module refs:   UART1_RXError_ISRHandler
           ENTRY                   ADDRESS         REF BY
           =====                   =======         ======
           _A_SSR03                000F0106 
           LOCAL                   ADDRESS         
           =====                   =======         
           SSR03                   000F0106 
           SSR03L                  000F0106 
           SSR03L_bit              000F0106 
           SSR03_bit               000F0106 
    -------------------------------------------------------------------------
NEAR_Z
  Relative segment, address: 000FAE3A - 000FAE79 (0x40 bytes), align: 1
  Segment part 45.            Intra module refs:   UART0_RX_ISRHandler
           LOCAL                   ADDRESS         
           =====                   =======         
           G_UART0_RXBuffer        000FAE3A 
    -------------------------------------------------------------------------
NEAR_Z
  Relative segment, address: 000FAE7A - 000FAE7B (0x2 bytes), align: 1
  Segment part 46.            Intra module refs:   RL78G14RDK_UART_Start
                                                   UART0_RX_ISRHandler
           LOCAL                   ADDRESS         
           =====                   =======         
           G_UART0_RXIn            000FAE7A 
    -------------------------------------------------------------------------
NEAR_Z
  Relative segment, address: 000FAE7C - 000FAE7D (0x2 bytes), align: 1
  Segment part 47.            Intra module refs:   RL78G14RDK_UART_Start
                                                   UART0_RX_ISRHandler
           LOCAL                   ADDRESS         
           =====                   =======         
           G_UART0_RXOut           000FAE7C 
    -------------------------------------------------------------------------
NEAR_Z
  Relative segment, address: 000FAE7E - 000FAEBD (0x40 bytes), align: 1
  Segment part 48.            Intra module refs:   UART0_TX_ISRHandler
           LOCAL                   ADDRESS         
           =====                   =======         
           G_UART0_TXBuffer        000FAE7E 
    -------------------------------------------------------------------------
NEAR_Z
  Relative segment, address: 000FAEBE - 000FAEBF (0x2 bytes), align: 1
  Segment part 49.            Intra module refs:   RL78G14RDK_UART_Start
                                                   UART0_TX_ISRHandler
           LOCAL                   ADDRESS         
           =====                   =======         
           G_UART0_TXIn            000FAEBE 
    -------------------------------------------------------------------------
NEAR_Z
  Relative segment, address: 000FAEC0 - 000FAEC1 (0x2 bytes), align: 1
  Segment part 50.            Intra module refs:   RL78G14RDK_UART_Start
                                                   UART0_TX_ISRHandler
           LOCAL                   ADDRESS         
           =====                   =======         
           G_UART0_TXOut           000FAEC0 
    -------------------------------------------------------------------------
NEAR_Z
  Relative segment, address: 000FAFF4 - 000FAFF4 (0x1 bytes), align: 0
  Segment part 51.            Intra module refs:   RL78G14RDK_UART_Start
                                                   UART0_TX_ISRHandler
           LOCAL                   ADDRESS         
           =====                   =======         
           G_UART0_TX_Empty        000FAFF4 
    -------------------------------------------------------------------------
NEAR_Z
  Relative segment, address: 000FAFF5 - 000FAFF5 (0x1 bytes), align: 0
  Segment part 52.            Intra module refs:   UART0_RXError_ISRHandler
           LOCAL                   ADDRESS         
           =====                   =======         
           G_UART0_LastError       000FAFF5 
    -------------------------------------------------------------------------
NEAR_Z
  Relative segment, address: 000FAEC2 - 000FAEC3 (0x2 bytes), align: 1
  Segment part 53.            Intra module refs:   UART0_RXError_ISRHandler
           LOCAL                   ADDRESS         
           =====                   =======         
           G_UART0_ErrorCount      000FAEC2 
    -------------------------------------------------------------------------
NEAR_Z
  Relative segment, address: 000FAEC4 - 000FAF43 (0x80 bytes), align: 1
  Segment part 54.            Intra module refs:   UART1_RX_ISRHandler
           LOCAL                   ADDRESS         
           =====                   =======         
           G_UART1_RXBuffer        000FAEC4 
    -------------------------------------------------------------------------
NEAR_Z
  Relative segment, address: 000FAF44 - 000FAF45 (0x2 bytes), align: 1
  Segment part 55.            Intra module refs:   RL78G14RDK_UART_Start
                                                   UART1_RX_ISRHandler
           LOCAL                   ADDRESS         
           =====                   =======         
           G_UART1_RXIn            000FAF44 
    -------------------------------------------------------------------------
NEAR_Z
  Relative segment, address: 000FAF46 - 000FAF47 (0x2 bytes), align: 1
  Segment part 56.            Intra module refs:   RL78G14RDK_UART_Start
                                                   UART1_RX_ISRHandler
           LOCAL                   ADDRESS         
           =====                   =======         
           G_UART1_RXOut           000FAF46 
    -------------------------------------------------------------------------
NEAR_Z
  Relative segment, address: 000FAF48 - 000FAFC7 (0x80 bytes), align: 1
  Segment part 57.            Intra module refs:   UART1_TX_ISRHandler
           LOCAL                   ADDRESS         
           =====                   =======         
           G_UART1_TXBuffer        000FAF48 
    -------------------------------------------------------------------------
NEAR_Z
  Relative segment, address: 000FAFC8 - 000FAFC9 (0x2 bytes), align: 1
  Segment part 58.            Intra module refs:   RL78G14RDK_UART_Start
                                                   UART1_TX_ISRHandler
           LOCAL                   ADDRESS         
           =====                   =======         
           G_UART1_TXIn            000FAFC8 
    -------------------------------------------------------------------------
NEAR_Z
  Relative segment, address: 000FAFCA - 000FAFCB (0x2 bytes), align: 1
  Segment part 59.            Intra module refs:   RL78G14RDK_UART_Start
                                                   UART1_TX_ISRHandler
           LOCAL                   ADDRESS         
           =====                   =======         
           G_UART1_TXOut           000FAFCA 
    -------------------------------------------------------------------------
NEAR_Z
  Relative segment, address: 000FAFF6 - 000FAFF6 (0x1 bytes), align: 0
  Segment part 60.            Intra module refs:   RL78G14RDK_UART_Start
                                                   UART1_TX_ISRHandler
           LOCAL                   ADDRESS         
           =====                   =======         
           G_UART1_TX_Empty        000FAFF6 
    -------------------------------------------------------------------------
NEAR_Z
  Relative segment, address: 000FAFF7 - 000FAFF7 (0x1 bytes), align: 0
  Segment part 61.            Intra module refs:   UART1_RXError_ISRHandler
           LOCAL                   ADDRESS         
           =====                   =======         
           G_UART1_LastError       000FAFF7 
    -------------------------------------------------------------------------
NEAR_Z
  Relative segment, address: 000FAFCC - 000FAFCD (0x2 bytes), align: 1
  Segment part 62.            Intra module refs:   UART1_RXError_ISRHandler
           LOCAL                   ADDRESS         
           =====                   =======         
           G_UART1_ErrorCount      000FAFCC 
    -------------------------------------------------------------------------
CODE
  Relative segment, address: 00009B41 - 00009BE2 (0xa2 bytes), align: 0
  Segment part 63.            Intra module refs:   Create_UART0
           ENTRY                   ADDRESS         REF BY
           =====                   =======         ======
           UART0_SetBaudRate       00009B41 
               CSTACK = 00000000 ( 0000000C )
    -------------------------------------------------------------------------
CODE
  Relative segment, address: 00009BE3 - 00009C84 (0xa2 bytes), align: 0
  Segment part 64.            Intra module refs:   Create_UART1
           ENTRY                   ADDRESS         REF BY
           =====                   =======         ======
           UART1_SetBaudRate       00009BE3 
               CSTACK = 00000000 ( 0000000C )
    -------------------------------------------------------------------------
CODE
  Relative segment, address: 00009C85 - 00009CD8 (0x54 bytes), align: 0
  Segment part 65.
           ENTRY                   ADDRESS         REF BY
           =====                   =======         ======
           RL78G14RDK_UART_Start   00009C85        main (main)
               calls direct
               CSTACK = 00000004 ( 00000004 )
    -------------------------------------------------------------------------
CODE
  Relative segment, address: 00009CD9 - 00009D80 (0xa8 bytes), align: 0
  Segment part 66.            Intra module refs:   RL78G14RDK_UART_Start
           ENTRY                   ADDRESS         REF BY
           =====                   =======         ======
           Create_UART0            00009CD9 
               calls direct
               CSTACK = 00000000 ( 00000004 )
    -------------------------------------------------------------------------
CODE
  Relative segment, address: 00009D81 - 00009DB3 (0x33 bytes), align: 0
  Segment part 73.            Intra module refs:   UART0_TX_ISRHandler::??INTVEC 30
           ENTRY                   ADDRESS         REF BY
           =====                   =======         ======
           UART0_TX_ISRHandler     00009D81 
               interrupt function
               CSTACK = 00000000 ( 00000006 )
    -------------------------------------------------------------------------
CODE
  Relative segment, address: 00009DB4 - 00009E19 (0x66 bytes), align: 0
  Segment part 74.            Intra module refs:   UART0_RX_ISRHandler::??INTVEC 32
           ENTRY                   ADDRESS         REF BY
           =====                   =======         ======
           UART0_RX_ISRHandler     00009DB4 
               interrupt function
               CSTACK = 00000000 ( 00000010 )
    -------------------------------------------------------------------------
CODE
  Relative segment, address: 00009E1A - 00009E5A (0x41 bytes), align: 0
  Segment part 75.            Intra module refs:   UART0_RXError_ISRHandler::??INTVEC 34
           ENTRY                   ADDRESS         REF BY
           =====                   =======         ======
           UART0_RXError_ISRHandler
                                   00009E1A 
               interrupt function
               CSTACK = 00000000 ( 00000002 )
    -------------------------------------------------------------------------
CODE
  Relative segment, address: 00009E5B - 00009F1B (0xc1 bytes), align: 0
  Segment part 76.            Intra module refs:   RL78G14RDK_UART_Start
           ENTRY                   ADDRESS         REF BY
           =====                   =======         ======
           Create_UART1            00009E5B 
               calls direct
               CSTACK = 00000000 ( 00000004 )
    -------------------------------------------------------------------------
CODE
  Relative segment, address: 00009F1C - 00009F4E (0x33 bytes), align: 0
  Segment part 83.            Intra module refs:   UART1_TX_ISRHandler::??INTVEC 36
           ENTRY                   ADDRESS         REF BY
           =====                   =======         ======
           UART1_TX_ISRHandler     00009F1C 
               interrupt function
               CSTACK = 00000000 ( 00000006 )
    -------------------------------------------------------------------------
CODE
  Relative segment, address: 00009F4F - 00009FB4 (0x66 bytes), align: 0
  Segment part 84.            Intra module refs:   UART1_RX_ISRHandler::??INTVEC 38
           ENTRY                   ADDRESS         REF BY
           =====                   =======         ======
           UART1_RX_ISRHandler     00009F4F 
               interrupt function
               CSTACK = 00000000 ( 00000010 )
    -------------------------------------------------------------------------
CODE
  Relative segment, address: 00009FB5 - 00009FF5 (0x41 bytes), align: 0
  Segment part 85.            Intra module refs:   UART1_RXError_ISRHandler::??INTVEC 40
           ENTRY                   ADDRESS         REF BY
           =====                   =======         ======
           UART1_RXError_ISRHandler
                                   00009FB5 
               interrupt function
               CSTACK = 00000000 ( 00000002 )
    -------------------------------------------------------------------------
INTVEC
  Common segment, address: 00000000 - 0000001F (0x20 bytes), align: 1
  Segment part 38. ROOT 
           ENTRY                   ADDRESS         REF BY
           =====                   =======         ======
           UART0_TX_ISRHandler::??INTVEC 30
                                   0000001E 
    -------------------------------------------------------------------------
INTVEC
  Common segment, address: 00000000 - 00000021 (0x22 bytes), align: 1
  Segment part 39. ROOT 
           ENTRY                   ADDRESS         REF BY
           =====                   =======         ======
           UART0_RX_ISRHandler::??INTVEC 32
                                   00000020 
    -------------------------------------------------------------------------
INTVEC
  Common segment, address: 00000000 - 00000023 (0x24 bytes), align: 1
  Segment part 40. ROOT 
           ENTRY                   ADDRESS         REF BY
           =====                   =======         ======
           UART0_RXError_ISRHandler::??INTVEC 34
                                   00000022 
    -------------------------------------------------------------------------
INTVEC
  Common segment, address: 00000000 - 00000025 (0x26 bytes), align: 1
  Segment part 41. ROOT 
           ENTRY                   ADDRESS         REF BY
           =====                   =======         ======
           UART1_TX_ISRHandler::??INTVEC 36
                                   00000024 
    -------------------------------------------------------------------------
INTVEC
  Common segment, address: 00000000 - 00000027 (0x28 bytes), align: 1
  Segment part 42. ROOT 
           ENTRY                   ADDRESS         REF BY
           =====                   =======         ======
           UART1_RX_ISRHandler::??INTVEC 38
                                   00000026 
    -------------------------------------------------------------------------
INTVEC
  Common segment, address: 00000000 - 00000029 (0x2a bytes), align: 1
  Segment part 43. ROOT 
           ENTRY                   ADDRESS         REF BY
           =====                   =======         ======
           UART1_RXError_ISRHandler::??INTVEC 40
                                   00000028 

    *************************************************************************

  FILE NAME : C:\Users\Steve\Dropbox\Kiln\CustomerProjects\RenesasDemo\Factory_Demo_Whisker\YRDKRL78G14\Debug\Obj\user_app.r87
    *************************************************************************

  FILE NAME : C:\Users\Steve\Dropbox\Kiln\CustomerProjects\RenesasDemo\Factory_Demo_Whisker\YRDKRL78G14\Debug\Obj\xr20m1170.r87
  PROGRAM MODULE, NAME : xr20m1170

  SEGMENTS IN THE MODULE
  ======================
CODE
  Relative segment, address: 00009FF6 - 0000A065 (0x70 bytes), align: 0
  Segment part 10.            Intra module refs:   spiUartInitialize
           ENTRY                   ADDRESS         REF BY
           =====                   =======         ======
           write                   00009FF6 
               calls direct
               CSTACK = 00000000 ( 0000000C )
    -------------------------------------------------------------------------
CODE
  Relative segment, address: 0000A066 - 0000A0DE (0x79 bytes), align: 0
  Segment part 11.            Intra module refs:   spiUartGetByte
                                                   spiUartInitialize
                                                   spiUartRxBytesAvailable
           ENTRY                   ADDRESS         REF BY
           =====                   =======         ======
           read                    0000A066 
               calls direct
               CSTACK = 00000000 ( 0000000C )
    -------------------------------------------------------------------------
CODE
  Relative segment, address: 0000A0DF - 0000A15A (0x7c bytes), align: 0
  Segment part 12.
           ENTRY                   ADDRESS         REF BY
           =====                   =======         ======
           spiUartInitialize       0000A0DF        App_WhiskerGW (App_WhiskerGW)
               calls direct
               CSTACK = 00000000 ( 00000002 )
    -------------------------------------------------------------------------
CODE
  Relative segment, address: 0000A15B - 0000A16A (0x10 bytes), align: 0
  Segment part 13.
           ENTRY                   ADDRESS         REF BY
           =====                   =======         ======
           spiUartRxBytesAvailable
                                   0000A15B        App_WhiskerGW (App_WhiskerGW)
               calls direct
               CSTACK = 00000000 ( 00000002 )
    -------------------------------------------------------------------------
CODE
  Relative segment, address: 0000A16B - 0000A170 (0x6 bytes), align: 0
  Segment part 15.
           ENTRY                   ADDRESS         REF BY
           =====                   =======         ======
           spiUartGetByte          0000A16B        App_WhiskerGW (App_WhiskerGW)
               calls direct

    *************************************************************************

  FILE NAME : C:\Program Files (x86)\IAR Systems\Embedded Workbench 7.0\rl78\LIB\dlrl78nn2n.r87
  LIBRARY MODULE, NAME : ?atoi

  SEGMENTS IN THE MODULE
  ======================
CODE
  Relative segment, address: 0000A171 - 0000A17C (0xc bytes), align: 0
  Segment part 2.
           ENTRY                   ADDRESS         REF BY
           =====                   =======         ======
           atoi                    0000A171        AtLibGs_GetWebProvSettings (AtCmdLib)
                                                   AtLibGs_ParseIPv4Address (AtCmdLib)
                                                   AtLibGs_ParseRssiResponse (AtCmdLib)
                                                   AtLibGs_TCPClientStart (AtCmdLib)
               calls direct
               CSTACK = 00000000 ( 00000004 )

    -------------------------------------------------------------------------
  LIBRARY MODULE, NAME : ?_exit

  SEGMENTS IN THE MODULE
  ======================
__aseg
  Relative segment, address: 00000000, align: 0
  Segment part 1. ROOT 
    -------------------------------------------------------------------------
RCODE
  Relative segment, address: 000002FB - 000002FB (0x1 bytes), align: 0
  Segment part 2.
           ENTRY                   ADDRESS         REF BY
           =====                   =======         ======
           _exit                   000002FB        exit (?exit)
    -------------------------------------------------------------------------
RCODE
  Relative segment, address: 000002FC - 000002FF (0x4 bytes), align: 0
  Segment part 5.             Intra module refs:   _exit
           ENTRY                   ADDRESS         REF BY
           =====                   =======         ======
           __iar_exit_end          00000300 

    -------------------------------------------------------------------------
  LIBRARY MODULE, NAME : ?CSTARTUP

  SEGMENTS IN THE MODULE
  ======================
__aseg
  Relative segment, address: 00000000, align: 0
  Segment part 1. ROOT 
    -------------------------------------------------------------------------
CSTACK
  Relative segment, address: 000FAFF8, align: 1
  Segment part 2. ROOT 
    -------------------------------------------------------------------------
INTVEC
  Common segment, address: 00000000 - 00000001 (0x2 bytes), align: 1
  Segment part 3. ROOT 
    -------------------------------------------------------------------------
RCODE
  Relative segment, address: 00000300 - 0000032E (0x2f bytes), align: 0
  Segment part 4. ROOT        Intra module refs:   Segment part 3
           ENTRY                   ADDRESS         REF BY
           =====                   =======         ======
           ?C_STARTUP              00000300 
           @cstart                 00000300 
           __program_start         00000300        Absolute parts (?ABS_ENTRY_MOD)

    -------------------------------------------------------------------------
  LIBRARY MODULE, NAME : ?__INIT_HUGE_Z

  SEGMENTS IN THE MODULE
  ======================
HUGE_Z
  Relative segment, address: 000FAFF8, align: 0
  Segment part 1. ROOT 

    -------------------------------------------------------------------------
  LIBRARY MODULE, NAME : ?__INIT_FAR_Z

  SEGMENTS IN THE MODULE
  ======================
FAR_Z
  Relative segment, address: 000FAFF8, align: 0
  Segment part 1. ROOT 

    -------------------------------------------------------------------------
  LIBRARY MODULE, NAME : ?__INIT_NEAR_Z

  SEGMENTS IN THE MODULE
  ======================
NEAR_Z
  Relative segment, address: 000FAFF8, align: 0
  Segment part 1. ROOT 
    -------------------------------------------------------------------------
RCODE
  Relative segment, address: 0000032F - 00000341 (0x13 bytes), align: 0
  Segment part 2.
           ENTRY                   ADDRESS         REF BY
           =====                   =======         ======
           __INIT_NEAR_Z           0000032F        AtLibGs_ReceiveDataProcess::GSLinkType (AtCmdLib)
                                                   AtLibGs_ReceiveDataProcess::GetValue (AtCmdLib)
                                                   AtLibGs_ReceiveDataProcess::PostTag (AtCmdLib)
                                                   AtLibGs_ReceiveDataProcess::PostValue (AtCmdLib)
                                                   AtLibGs_ReceiveDataProcess::escStatus (AtCmdLib)
                                                   AtLibGs_ReceiveDataProcess::pPostTag (AtCmdLib)
                                                   AtLibGs_ReceiveDataProcess::pPostValue (AtCmdLib)
                                                   AtLibGs_ReceiveDataProcess::receive_state (AtCmdLib)
                                                   AtLibGs_ReceiveDataProcess::rxCurrentCid (AtCmdLib)
                                                   AtLibGs_ReceiveDataProcess::rxPOSTCid (AtCmdLib)
                                                   AtLibGs_ReceiveDataProcess::specialDataLen (AtCmdLib)
                                                   AtLibGs_ReceiveDataProcess::specialDataLenCharCount (AtCmdLib)
                                                   GNV_Setting (App_Startup)
                                                   G_CSI21_ReceivingData (r_cg_serial_user)
                                                   G_CSI21_SendingData (r_cg_serial_user)
                                                   G_GainSpan_SPI_CanTransmit (GainSpan_SPI)
                                                   G_GainSpan_SPI_EscapeCode (GainSpan_SPI)
                                                   G_GainSpan_SPI_IsLinkActive (GainSpan_SPI)
                                                   G_GainSpan_SPI_IsTransferActive (GainSpan_SPI)
                                                   G_GainSpan_SPI_IsTransferComplete (GainSpan_SPI)
                                                   G_GainSpan_SPI_NumSent (GainSpan_SPI)
                                                   G_GainSpan_SPI_RXBuffer (GainSpan_SPI)
                                                   G_GainSpan_SPI_RXIn (GainSpan_SPI)
                                                   G_GainSpan_SPI_RXOut (GainSpan_SPI)
                                                   G_GainSpan_SPI_TXBuffer (GainSpan_SPI)
                                                   G_GainSpan_SPI_TXIn (GainSpan_SPI)
                                                   G_GainSpan_SPI_TXOut (GainSpan_SPI)
                                                   G_GainSpan_SPI_TX_Empty (GainSpan_SPI)
                                                   G_GainSpan_SPI_XONIdleChar (GainSpan_SPI)
                                                   G_I2C_Address (I2C)
                                                   G_I2C_CompleteFunc (I2C)
                                                   G_I2C_Data (I2C)
                                                   G_I2C_DataLen (I2C)
                                                   G_I2C_RXCount (I2C)
                                                   G_I2C_Request (I2C)
                                                   G_I2C_State (I2C)
                                                   G_I2C_TXCount (I2C)
                                                   G_LEDStatus (led)
                                                   G_SPI_CSActiveHigh (SPI _G14)
                                                   G_SPI_CSActivePerByte (SPI _G14)
                                                   G_SPI_Callback (SPI _G14)
                                                   G_SPI_Channel (SPI _G14)
                                                   G_SPI_IsBusy (SPI _G14)
                                                   G_SPI_OverrunErrorCount (SPI _G14)
                                                   G_SPI_ReceiveBuffer (SPI _G14)
                                                   G_SPI_ReceiveIndex (SPI _G14)
                                                   G_SPI_SendBuffer (SPI _G14)
                                                   G_SPI_SendIndex (SPI _G14)
                                                   G_SPI_SendLength (SPI _G14)
                                                   G_Timer_ISR (Timer)
                                                   G_UART0_ErrorCount (UART)
                                                   G_UART0_LastError (UART)
                                                   G_UART0_RXBuffer (UART)
                                                   G_UART0_RXIn (UART)
                                                   G_UART0_RXOut (UART)
                                                   G_UART0_TXBuffer (UART)
                                                   G_UART0_TXIn (UART)
                                                   G_UART0_TXOut (UART)
                                                   G_UART0_TX_Empty (UART)
                                                   G_UART1_ErrorCount (UART)
                                                   G_UART1_LastError (UART)
                                                   G_UART1_RXBuffer (UART)
                                                   G_UART1_RXIn (UART)
                                                   G_UART1_RXOut (UART)
                                                   G_UART1_TXBuffer (UART)
                                                   G_UART1_TXIn (UART)
                                                   G_UART1_TXOut (UART)
                                                   G_UART1_TX_Empty (UART)
                                                   G_commAPI (glyph)
                                                   G_glyphWorkspace (glyph)
                                                   G_lcd (lcd)
                                                   G_lcdAPI (glyph)
                                                   G_msTimer (mstimer)
                                                   G_received (GSHAL)
                                                   G_receivedCount (GSHAL)
                                                   MRBuffer (AtCmdLib)
                                                   MRBufferIndex (AtCmdLib)
                                                   WiFiMAC (App_Startup)
                                                   WiFiMACStr (App_Startup)
                                                   WifiMAC (App_WhiskerGW)
                                                   __iar_Errno (?errno)
                                                   at_cmd_buf (AtCmdLib)
                                                   broker (App_WhiskerGW)
                                                   changingState (eink_driver)
                                                   cid (mqtt)
                                                   curDisplay (eink_driver)
                                                   curState (eink_driver)
                                                   delayFsmTicks (eink_driver)
                                                   einkDir (eink_driver)
                                                   einkNextDir (eink_driver)
                                                   gAccData (Accelerometer)
                                                   gAmbientLight (main)
                                                   gSetLight_onoff (led)
                                                   gTemp_F (main)
                                                   g_csi21_tx_count (r_cg_serial)
                                                   gp_csi21_rx_address (r_cg_serial)
                                                   gp_csi21_tx_address (r_cg_serial)
                                                   mqttConnected (App_WhiskerGW)
                                                   nextDisplay (eink_driver)
                                                   nodeAssociationFlag (AtCmdLib)
                                                   nodeResetFlag (AtCmdLib)
                                                   pDebugMsg (AtCmdLib)
                                                   packet_buffer (mqtt)
                                                   rxm (mqtt)
                                                   str_config_ssid (App_Startup)
                                                   updateNum (eink_driver)
                                                   updateRequest (eink_driver)
                                                   updateStep (eink_driver)
                                                   updateTypeDefault (eink_driver)
                                                   valueLen (AtCmdLib)

    -------------------------------------------------------------------------
  LIBRARY MODULE, NAME : ?__INIT_WRKSEG

  SEGMENTS IN THE MODULE
  ======================
WRKSEG
  Relative segment, address: 000FFE20, align: 0
  Segment part 1. ROOT 
    -------------------------------------------------------------------------
RCODE
  Relative segment, address: 00000342 - 0000034C (0xb bytes), align: 0
  Segment part 2.
           ENTRY                   ADDRESS         REF BY
           =====                   =======         ======
           __INIT_WRKSEG           00000342        ?F_DIV (?FLOAT_DIV)
                                                   ?F_MUL (?FLOAT_MUL)
                                                   Segment part 2 (?FLOAT_2_SIGNED_LONG)
                                                   Segment part 2 (?FLOAT_ADD_SUB)
                                                   __WRKSEG_0 (?WRKSEG_DEFINE_L09)

    -------------------------------------------------------------------------
  LIBRARY MODULE, NAME : ?__INIT_NEAR_I

  SEGMENTS IN THE MODULE
  ======================
NEAR_I
  Relative segment, address: 000FA043, align: 0
  Segment part 1. ROOT 
    -------------------------------------------------------------------------
NEAR_ID
  Relative segment, address: 0000B739, align: 0
  Segment part 2. ROOT 
    -------------------------------------------------------------------------
RCODE
  Relative segment, address: 0000034D - 00000366 (0x1a bytes), align: 0
  Segment part 3.
           ENTRY                   ADDRESS         REF BY
           =====                   =======         ======
           __INIT_NEAR_I           0000034D        AtLibGs_ReceiveDataProcess{1}{5}::esc2 (AtCmdLib)
                                                   GPIOTable (led)
                                                   G_CharWidth (lcd)
                                                   G_LEDPin (led)
                                                   G_LEDPort (led)
                                                   SPI2_CS_Pin (RDKRL78_spi)
                                                   SPI_CS_P (SPI _G14)
                                                   SPI_CS_PM (SPI _G14)
                                                   SPI_CS_Pin (SPI _G14)
                                                   SPI_CS_Port (RDKRL78_spi)
                                                   Segment part 10 (?xprintflarge)
                                                   Segment part 12 (?xprintflarge)
                                                   Segment part 2 (?xprintflarge)
                                                   Segment part 2 (?xstoul)
                                                   Segment part 4 (?xprintflarge)
                                                   Segment part 4 (?xstoul)
                                                   Segment part 6 (?xprintflarge)
                                                   Segment part 8 (?xprintflarge)
                                                   WIFI_Associate::WEPMode (App_WhiskerGW)
                                                   delayFsmFlag (eink_driver)
                                                   itoa::digits (AtCmdLib)
                                                   moduleList (App_WhiskerGW)
                                                   picketShortHolder (eink_driver)
                                                   segDelayHolder (eink_driver)
                                                   updateType (eink_driver)

    -------------------------------------------------------------------------
  LIBRARY MODULE, NAME : ?__MAIN_CALL

  SEGMENTS IN THE MODULE
  ======================
RCODE
  Relative segment, address: 00000367 - 0000036C (0x6 bytes), align: 0
  Segment part 1.
           ENTRY                   ADDRESS         REF BY
           =====                   =======         ======
           @cend                   0000036D 
           __MAIN_CALL             00000367        Segment part 4 (?CSTARTUP)
           __program_end           0000036D 

    -------------------------------------------------------------------------
  LIBRARY MODULE, NAME : ?__low_level_init_stub

  SEGMENTS IN THE MODULE
  ======================
RCODE
  Relative segment, address: 0000036D - 00000370 (0x4 bytes), align: 0
  Segment part 1.
           ENTRY                   ADDRESS         REF BY
           =====                   =======         ======
           __low_level_init        0000036D        Segment part 4 (?CSTARTUP)

    -------------------------------------------------------------------------
  LIBRARY MODULE, NAME : ?div

  SEGMENTS IN THE MODULE
  ======================
CODE
  Relative segment, address: 0000A17D - 0000A198 (0x1c bytes), align: 0
  Segment part 2.
           ENTRY                   ADDRESS         REF BY
           =====                   =======         ======
           div                     0000A17D        _GenldLarge (?xprintflarge)
               CSTACK = 00000000 ( 00000006 )

    -------------------------------------------------------------------------
  LIBRARY MODULE, NAME : ?errno

  SEGMENTS IN THE MODULE
  ======================
NEAR_Z
  Relative segment, address: 000FAFCE - 000FAFCF (0x2 bytes), align: 1
  Segment part 2.
           ENTRY                   ADDRESS         REF BY
           =====                   =======         ======
           __iar_Errno             000FAFCE        __iar_Stolx (?xstol)
                                                   __iar_Stoulx (?xstoul)

    -------------------------------------------------------------------------
  LIBRARY MODULE, NAME : ?exit

  SEGMENTS IN THE MODULE
  ======================
CODE
  Relative segment, address: 0000A199 - 0000A19B (0x3 bytes), align: 0
  Segment part 2.
           ENTRY                   ADDRESS         REF BY
           =====                   =======         ======
           exit                    0000A199        Segment part 1 (?__MAIN_CALL)
               calls direct

    -------------------------------------------------------------------------
  LIBRARY MODULE, NAME : ?FLOAT_ADD_SUB

  SEGMENTS IN THE MODULE
  ======================
__aseg
  Relative segment, address: 00000000, align: 0
  Segment part 1. ROOT 
    -------------------------------------------------------------------------
RCODE
  Relative segment, address: 00000371 - 000005CC (0x25c bytes), align: 0
  Segment part 2.
           ENTRY                   ADDRESS         REF BY
           =====                   =======         ======
           ?F_ADD                  000003B2 
           ?F_SUB                  000004D1        _LdtobLarge (?xprintflarge)

    -------------------------------------------------------------------------
  LIBRARY MODULE, NAME : ?FCMP_LT

  SEGMENTS IN THE MODULE
  ======================
__aseg
  Relative segment, address: 00000000, align: 0
  Segment part 1. ROOT 
    -------------------------------------------------------------------------
RCODE
  Relative segment, address: 000005CD - 00000619 (0x4d bytes), align: 0
  Segment part 2.
           ENTRY                   ADDRESS         REF BY
           =====                   =======         ======
           ?FCMP_LT                000005CD        _LdtobLarge (?xprintflarge)

    -------------------------------------------------------------------------
  LIBRARY MODULE, NAME : ?FLOAT_DIV

  SEGMENTS IN THE MODULE
  ======================
__aseg
  Relative segment, address: 00000000, align: 0
  Segment part 1. ROOT 
    -------------------------------------------------------------------------
RCODE
  Relative segment, address: 0000061A - 00000791 (0x178 bytes), align: 0
  Segment part 2.
           ENTRY                   ADDRESS         REF BY
           =====                   =======         ======
           ?F_DIV                  00000683        _LdtobLarge (?xprintflarge)

    -------------------------------------------------------------------------
  LIBRARY MODULE, NAME : ?FLOAT_2_SIGNED_LONG

  SEGMENTS IN THE MODULE
  ======================
__aseg
  Relative segment, address: 00000000, align: 0
  Segment part 1. ROOT 
    -------------------------------------------------------------------------
RCODE
  Relative segment, address: 00000792 - 000007FC (0x6b bytes), align: 0
  Segment part 2.
           ENTRY                   ADDRESS         REF BY
           =====                   =======         ======
           ?F_F2SL                 00000792 
           ?F_F2UL                 00000792        _LdtobLarge (?xprintflarge)

    -------------------------------------------------------------------------
  LIBRARY MODULE, NAME : ?SIGNED_LONG_2_FLOAT

  SEGMENTS IN THE MODULE
  ======================
__aseg
  Relative segment, address: 00000000, align: 0
  Segment part 1. ROOT 
    -------------------------------------------------------------------------
RCODE
  Relative segment, address: 000007FD - 00000851 (0x55 bytes), align: 0
  Segment part 3.
           ENTRY                   ADDRESS         REF BY
           =====                   =======         ======
           ?F_UL2F                 000007FD        _LdtobLarge (?xprintflarge)

    -------------------------------------------------------------------------
  LIBRARY MODULE, NAME : ?SUBN_ARG

  SEGMENTS IN THE MODULE
  ======================
__aseg
  Relative segment, address: 00000000, align: 0
  Segment part 1. ROOT 
    -------------------------------------------------------------------------
RCODE
  Relative segment, address: 00000852 - 0000085C (0xb bytes), align: 0
  Segment part 2.
           ENTRY                   ADDRESS         REF BY
           =====                   =======         ======
           __iar_norm_arg          00000852        ?F_DIV (?FLOAT_DIV)
                                                   ?F_MUL (?FLOAT_MUL)
                                                   Segment part 2 (?FLOAT_ADD_SUB)

    -------------------------------------------------------------------------
  LIBRARY MODULE, NAME : ?FLOAT_MUL

  SEGMENTS IN THE MODULE
  ======================
__aseg
  Relative segment, address: 00000000, align: 0
  Segment part 1. ROOT 
    -------------------------------------------------------------------------
RCODE
  Relative segment, address: 0000085D - 000009B1 (0x155 bytes), align: 0
  Segment part 2.
           ENTRY                   ADDRESS         REF BY
           =====                   =======         ======
           ?F_MUL                  000008C4        _LdtobLarge (?xprintflarge)
                                                   scale (?xprintflarge)

    -------------------------------------------------------------------------
  LIBRARY MODULE, NAME : ?CLRL78_V1_0_L00

Absolute parts
           ENTRY                   ADDRESS         REF BY
           =====                   =======         ======
           ?CLRL78_V1_0_L00        FFFFFFFF        ?Subroutine0 (ST7579_LCD)
                                                   ?Subroutine0 (glyph)
                                                   ?Subroutine1 (ST7579_LCD)
                                                   ?Subroutine10 (ST7579_LCD)
                                                   ?Subroutine11 (ST7579_LCD)
                                                   ?Subroutine2 (ST7579_LCD)
                                                   ?Subroutine3 (ST7579_LCD)
                                                   ?Subroutine3 (glyph)
                                                   ?Subroutine4 (ST7579_LCD)
                                                   ?Subroutine4 (glyph)
                                                   ?Subroutine5 (ST7579_LCD)
                                                   ?Subroutine5 (glyph)
                                                   ?Subroutine6 (ST7579_LCD)
                                                   ?Subroutine7 (ST7579_LCD)
                                                   ?Subroutine7 (glyph)
                                                   ?Subroutine8 (ST7579_LCD)
                                                   ?Subroutine8 (glyph)
                                                   ?Subroutine9 (ST7579_LCD)
                                                   ADC_EnableChannel (ADC)
                                                   ADC_Start (ADC)
                                                   App_ConnectMqtt (App_WhiskerGW)
                                                   App_InitModule (App_Startup)
                                                   App_MQTTMsgPublished (App_WhiskerGW)
                                                   App_PrepareIncomingData (GSHAL)
                                                   App_ProcessIncomingData (GSHAL)
                                                   App_Read (GSHAL)
                                                   App_StartupLimitedAP (App_Startup)
                                                   App_WebProvisioning_OverAirPush (App_Startup)
                                                   App_WhiskerGW (App_WhiskerGW)
                                                   App_Write (GSHAL)
                                                   AtLibGs_AnnounceMDNS (AtCmdLib)
                                                   AtLibGs_Assoc (AtCmdLib)
                                                   AtLibGs_CalcNStorePSK (AtCmdLib)
                                                   AtLibGs_Check (AtCmdLib)
                                                   AtLibGs_ClearNodeAssociationFlag (AtCmdLib)
                                                   AtLibGs_CommandSendString (AtCmdLib)
                                                   AtLibGs_ConfigAntenna (AtCmdLib)
                                                   AtLibGs_DHCPSet (AtCmdLib)
                                                   AtLibGs_DNSLookup (AtCmdLib)
                                                   AtLibGs_DataSend (AtCmdLib)
                                                   AtLibGs_DisAssoc (AtCmdLib)
                                                   AtLibGs_DisableDHCPServer (AtCmdLib)
                                                   AtLibGs_EnableDHCPServer (AtCmdLib)
                                                   AtLibGs_EnableRadio (AtCmdLib)
                                                   AtLibGs_FlushIncomingMessage (AtCmdLib)
                                                   AtLibGs_FlushRxBuffer (AtCmdLib)
                                                   AtLibGs_GetMAC (AtCmdLib)
                                                   AtLibGs_GetRssi (AtCmdLib)
                                                   AtLibGs_GetWebProvSettings (AtCmdLib)
                                                   AtLibGs_IPSet (AtCmdLib)
                                                   AtLibGs_Init (AtCmdLib)
                                                   AtLibGs_IsNodeAssociated (AtCmdLib)
                                                   AtLibGs_Mode (AtCmdLib)
                                                   AtLibGs_ParseDNSLookupResponse (AtCmdLib)
                                                   AtLibGs_ParseGetMacResponse (AtCmdLib)
                                                   AtLibGs_ParseIPv4Address (AtCmdLib)
                                                   AtLibGs_ParseIntoLines (AtCmdLib)
                                                   AtLibGs_ParseRssiResponse (AtCmdLib)
                                                   AtLibGs_ParseTCPData (AtCmdLib)
                                                   AtLibGs_ReceiveDataProcess (AtCmdLib)
                                                   AtLibGs_RegisterMDNSHost (AtCmdLib)
                                                   AtLibGs_RegisterMDNSService (AtCmdLib)
                                                   AtLibGs_ResponseHandle (AtCmdLib)
                                                   AtLibGs_SendTCPData (AtCmdLib)
                                                   AtLibGs_SetAuthentictionMode (AtCmdLib)
                                                   AtLibGs_SetEcho (AtCmdLib)
                                                   AtLibGs_SetNodeAssociationFlag (AtCmdLib)
                                                   AtLibGs_SetNodeResetFlag (AtCmdLib)
                                                   AtLibGs_SetSecurity (AtCmdLib)
                                                   AtLibGs_SetWEP1 (AtCmdLib)
                                                   AtLibGs_StartMDNS (AtCmdLib)
                                                   AtLibGs_TCPClientStart (AtCmdLib)
                                                   AtLibGs_Version (AtCmdLib)
                                                   AtLibGs_WaitForTCPMessage (AtCmdLib)
                                                   AtLibGs_WebProv (AtCmdLib)
                                                   AtLibGs_checkEOFMessage (AtCmdLib)
                                                   AtLib_ConvertNumberTo4DigitASCII (AtCmdLib)
                                                   AtLib_GSLinkGetPostResp (AtCmdLib)
                                                   AtLib_GSLinkPostDoneAck (AtCmdLib)
                                                   AtLib_GSLinkSend3Value (AtCmdLib)
                                                   AtLib_GSLinkSendTempValue (AtCmdLib)
                                                   AtLib_GSLinkSendValue (AtCmdLib)
                                                   ChangeEinkState (eink_driver)
                                                   ConfigureInterrupts (hwsetup)
                                                   ConfigureOperatingFrequency (hwsetup)
                                                   ConfigureOutputPorts (hwsetup)
                                                   Create_UART0 (UART)
                                                   Create_UART1 (UART)
                                                   DisplayLCD (lcd)
                                                   EEPROM_Erase (EEPROM)
                                                   EEPROM_Open (EEPROM)
                                                   EEPROM_Read (EEPROM)
                                                   EEPROM_Write (EEPROM)
                                                   EinkDisplayFSM (eink_driver)
                                                   EnablePeripheralModules (hwsetup)
                                                   GPIO_OuputMode (led)
                                                   GPIO_SetHigh (led)
                                                   GPIO_SetLow (led)
                                                   GainSpan_IO_IsDataReady (GainSpan_IO)
                                                   GainSpan_SPI_IsDataReady (GainSpan_SPI)
                                                   GainSpan_SPI_ProcessIncoming (GainSpan_SPI)
                                                   GainSpan_SPI_ProcessIncomingChar (GainSpan_SPI)
                                                   GainSpan_SPI_ReceiveByte (GainSpan_SPI)
                                                   GainSpan_SPI_SendByte (GainSpan_SPI)
                                                   GainSpan_SPI_SendByteLowLevel (GainSpan_SPI)
                                                   GainSpan_SPI_Start (GainSpan_SPI)
                                                   GainSpan_SPI_Update (GainSpan_SPI)
                                                   GlyphChar (glyph)
                                                   GlyphClearScreen (glyph)
                                                   GlyphCommOpen (glyph_register)
                                                   GlyphEraseBlock (glyph)
                                                   GlyphLCDOpen (glyph_register)
                                                   GlyphNormalScreen (glyph)
                                                   GlyphOpen (glyph)
                                                   GlyphSetDrawMode (glyph)
                                                   GlyphSetFont (glyph)
                                                   GlyphSetXY (glyph)
                                                   GlyphString (glyph)
                                                   HardwareSetup (hwsetup)
                                                   I2C_InterruptHandler (I2C)
                                                   I2C_IsBusy (I2C)
                                                   I2C_MasterHandler (I2C)
                                                   I2C_Read (I2C)
                                                   I2C_SetSpeed (I2C)
                                                   I2C_Start (I2C)
                                                   I2C_Write (I2C)
                                                   IGainSpan_SPI_TransferComplete (GainSpan_SPI)
                                                   IO_Reset (RDKRL78_spi)
                                                   InitialiseLCD (lcd)
                                                   Interrupt_ADC (ADC)
                                                   Interrupt_Timer (Timer)
                                                   LCDSelectFont (lcd)
                                                   LCD_SPI_CommandSend (glyph_register)
                                                   LCD_SPI_DataSend (glyph_register)
                                                   LCD_SPI_Open (glyph_register)
                                                   LoadInt (?xprintflarge)
                                                   MSTimerDelay (mstimer)
                                                   MSTimerDelta (mstimer)
                                                   MSTimerGet (mstimer)
                                                   MSTimerInit (mstimer)
                                                   NVSettingsChecksum (NVSettings)
                                                   NVSettingsInit (NVSettings)
                                                   NVSettingsLoad (NVSettings)
                                                   NVSettingsSave (NVSettings)
                                                   Potentiometer_Init (Potentiometer)
                                                   RL78G14RDK_UART_Start (UART)
                                                   RSSIReading (App_WhiskerGW)
                                                   R_CSI21_Create (r_cg_serial)
                                                   R_CSI21_Send_Receive (r_cg_serial)
                                                   R_CSI21_Start (r_cg_serial)
                                                   R_SAU1_Create (r_cg_serial)
                                                   SPI2_Init (RDKRL78_spi)
                                                   SPI_CS_Assert (SPI _G14)
                                                   SPI_CS_Clear (SPI _G14)
                                                   SPI_CS_End (RDKRL78_spi)
                                                   SPI_CS_Start (RDKRL78_spi)
                                                   SPI_ChannelSetup (SPI _G14)
                                                   SPI_DisableInterrupts (SPI _G14)
                                                   SPI_EnableInterrupts (SPI _G14)
                                                   SPI_ISRHandler (SPI _G14)
                                                   SPI_Init (SPI _G14)
                                                   SPI_IsBusy (SPI _G14)
                                                   SPI_Send (RDKRL78_spi)
                                                   SPI_SendReceive (RDKRL78_spi)
                                                   SPI_SetBitRate (SPI _G14)
                                                   SPI_Transfer (SPI _G14)
                                                   ST7579_Close (ST7579_LCD)
                                                   ST7579_Config (ST7579_LCD)
                                                   ST7579_Open (ST7579_LCD)
                                                   ST7579_Read (ST7579_LCD)
                                                   ST7579_Send16bitsCommand (ST7579_LCD)
                                                   ST7579_SetChar (ST7579_LCD)
                                                   ST7579_SetFrameRate (ST7579_LCD)
                                                   ST7579_SetLine (ST7579_LCD)
                                                   ST7579_SetPage (ST7579_LCD)
                                                   ST7579_SetSystemBiasBooster (ST7579_LCD)
                                                   ST7579_SetVO_Range (ST7579_LCD)
                                                   ST7579_Write (ST7579_LCD)
                                                   Segment part 15 (?xprintflarge)
                                                   Segment part 16 (?xprintflarge)
                                                   Segment part 16 (glyph)
                                                   Segment part 17 (?xprintflarge)
                                                   Segment part 18 (?xprintflarge)
                                                   Segment part 19 (?xprintflarge)
                                                   Segment part 20 (?xprintflarge)
                                                   Segment part 22 (?xprintflarge)
                                                   Segment part 23 (ST7579_LCD)
                                                   Segment part 25 (?xprintflarge)
                                                   Segment part 27 (ST7579_LCD)
                                                   Segment part 28 (?xprintflarge)
                                                   Segment part 29 (?xprintflarge)
                                                   Segment part 31 (?xprintflarge)
                                                   Segment part 32 (?xprintflarge)
                                                   Segment part 33 (?xprintflarge)
                                                   Segment part 34 (?xprintflarge)
                                                   Segment part 9 (ST7579_LCD)
                                                   SetOutput (eink_driver)
                                                   Switch2IsPressed (Switch)
                                                   Temperature_Init (Temperature)
                                                   TimerTick (eink_driver)
                                                   Timer_Start (Timer)
                                                   UART0_RXError_ISRHandler (UART)
                                                   UART0_RX_ISRHandler (UART)
                                                   UART0_SetBaudRate (UART)
                                                   UART0_TX_ISRHandler (UART)
                                                   UART1_RXError_ISRHandler (UART)
                                                   UART1_RX_ISRHandler (UART)
                                                   UART1_SetBaudRate (UART)
                                                   UART1_TX_ISRHandler (UART)
                                                   UpdateScreen (eink_driver)
                                                   WIFI_Associate (App_WhiskerGW)
                                                   WIFI_init (App_WhiskerGW)
                                                   _GenldLarge (?xprintflarge)
                                                   _LdtobLarge (?xprintflarge)
                                                   _LitobLarge (?xprintflarge)
                                                   _MSTimerISR (mstimer)
                                                   _PrintfLarge (?xprintflarge)
                                                   _PutcharLarge (?xprintflarge)
                                                   _PutcharsLarge (?xprintflarge)
                                                   _SProut (?xsprout)
                                                   __exit (?__exit)
                                                   __iar_Dnorm (?xdnorm)
                                                   __iar_Dunscale (?xdunscal)
                                                   __iar_Memchr (?memchr)
                                                   __iar_Stolx (?xstol)
                                                   __iar_Stoul (?xstoul)
                                                   __iar_Stoulx (?xstoul)
                                                   __iar_Strchr (?strchr)
                                                   __iar_Strstr (?strstr)
                                                   atoi (?atoi)
                                                   div (?div)
                                                   exit (?exit)
                                                   findModule (App_WhiskerGW)
                                                   init_socket (mqtt)
                                                   itoa (AtCmdLib)
                                                   led_all_off (led)
                                                   led_all_on (led)
                                                   led_init (led)
                                                   led_off (led)
                                                   led_on (led)
                                                   main (main)
                                                   memset (?memset)
                                                   mqtt_addIntValToMsg (mqtt)
                                                   mqtt_addStringValToMsg (mqtt)
                                                   mqtt_connect (mqtt)
                                                   mqtt_finishJsonMsg (mqtt)
                                                   mqtt_init (mqtt)
                                                   mqtt_initJsonMsg (mqtt)
                                                   mqtt_init_auth (mqtt)
                                                   mqtt_publish (mqtt)
                                                   mqtt_publish_with_qos (mqtt)
                                                   mqtt_read_packet (mqtt)
                                                   mqtt_set_alive (mqtt)
                                                   pad (?xprintflarge)
                                                   r_csi21_callback_error (r_cg_serial_user)
                                                   r_csi21_callback_receiveend (r_cg_serial_user)
                                                   r_csi21_callback_sendend (r_cg_serial_user)
                                                   r_csi21_interrupt (r_cg_serial_user)
                                                   read (xr20m1170)
                                                   scale (?xprintflarge)
                                                   send_packet (mqtt)
                                                   spiUartGetByte (xr20m1170)
                                                   spiUartInitialize (xr20m1170)
                                                   spiUartRxBytesAvailable (xr20m1170)
                                                   sprintf (?sprintf)
                                                   strcat (?strcat)
                                                   strchr (AtCmdLib)
                                                   strlen (?strlen)
                                                   strncmp (?strncmp)
                                                   strncpy (?strncpy)
                                                   strrev (AtCmdLib)
                                                   strstr (App_Startup)
                                                   strtol (?strtol)
                                                   strtoul (?strtoul)
                                                   write (xr20m1170)
  SEGMENTS IN THE MODULE
  ======================
__aseg
  Relative segment, address: 00000000, align: 0
  Segment part 1. ROOT 

    -------------------------------------------------------------------------
  LIBRARY MODULE, NAME : ?INT_LSH_L02

  SEGMENTS IN THE MODULE
  ======================
__aseg
  Relative segment, address: 00000000, align: 0
  Segment part 1. ROOT 
    -------------------------------------------------------------------------
RCODE
  Relative segment, address: 000009B2 - 000009BC (0xb bytes), align: 0
  Segment part 2.
           ENTRY                   ADDRESS         REF BY
           =====                   =======         ======
           ?I_LSH_L02              000009B2        GPIO_OuputMode (led)
                                                   GPIO_SetHigh (led)
                                                   GPIO_SetLow (led)
                                                   SPI_CS_Assert (SPI _G14)
                                                   SPI_CS_Clear (SPI _G14)
                                                   SPI_CS_End (RDKRL78_spi)
                                                   SPI_CS_Start (RDKRL78_spi)
                                                   SPI_ChannelSetup (SPI _G14)

    -------------------------------------------------------------------------
  LIBRARY MODULE, NAME : ?UINT_RSH_L02

  SEGMENTS IN THE MODULE
  ======================
__aseg
  Relative segment, address: 00000000, align: 0
  Segment part 1. ROOT 

    -------------------------------------------------------------------------
  LIBRARY MODULE, NAME : ?SINT_RSH_L02

  SEGMENTS IN THE MODULE
  ======================
__aseg
  Relative segment, address: 00000000, align: 0
  Segment part 1. ROOT 

    -------------------------------------------------------------------------
  LIBRARY MODULE, NAME : ?SINT_CMP_L02

  SEGMENTS IN THE MODULE
  ======================
__aseg
  Relative segment, address: 00000000, align: 0
  Segment part 1. ROOT 
    -------------------------------------------------------------------------
RCODE
  Relative segment, address: 000009BD - 000009C8 (0xc bytes), align: 0
  Segment part 2.
           ENTRY                   ADDRESS         REF BY
           =====                   =======         ======
           ?SI_CMP_L02             000009BD        App_WhiskerGW (App_WhiskerGW)
                                                   _GenldLarge (?xprintflarge)
                                                   _LdtobLarge (?xprintflarge)
                                                   _LitobLarge (?xprintflarge)
                                                   pad (?xprintflarge)

    -------------------------------------------------------------------------
  LIBRARY MODULE, NAME : ?ULONG_RSH_L03

  SEGMENTS IN THE MODULE
  ======================
__aseg
  Relative segment, address: 00000000, align: 0
  Segment part 1. ROOT 

    -------------------------------------------------------------------------
  LIBRARY MODULE, NAME : ?LONG_MUL_FAST_L03

  SEGMENTS IN THE MODULE
  ======================
__aseg
  Relative segment, address: 00000000, align: 0
  Segment part 1. ROOT 
    -------------------------------------------------------------------------
RCODE
  Relative segment, address: 000009C9 - 000009EB (0x23 bytes), align: 0
  Segment part 2.
           ENTRY                   ADDRESS         REF BY
           =====                   =======         ======
           ?L_MUL_FAST_L03         000009C9        __iar_Stoulx (?xstoul)

    -------------------------------------------------------------------------
  LIBRARY MODULE, NAME : ?LONG_AND_FAST_L03

  SEGMENTS IN THE MODULE
  ======================
__aseg
  Relative segment, address: 00000000, align: 0
  Segment part 1. ROOT 

    -------------------------------------------------------------------------
  LIBRARY MODULE, NAME : ?ULONG_CMP_L03

  SEGMENTS IN THE MODULE
  ======================
__aseg
  Relative segment, address: 00000000, align: 0
  Segment part 1. ROOT 
    -------------------------------------------------------------------------
RCODE
  Relative segment, address: 000009EC - 00000A08 (0x1d bytes), align: 0
  Segment part 2.
           ENTRY                   ADDRESS         REF BY
           =====                   =======         ======
           ?UL_CMP_L03             000009EC        NVSettingsLoad (NVSettings)
                                                   UART0_RX_ISRHandler (UART)
                                                   UART1_RX_ISRHandler (UART)
                                                   __iar_Stoulx (?xstoul)
                                                   findModule (App_WhiskerGW)

    -------------------------------------------------------------------------
  LIBRARY MODULE, NAME : ?LONG_NEG_L03

  SEGMENTS IN THE MODULE
  ======================
__aseg
  Relative segment, address: 00000000, align: 0
  Segment part 1. ROOT 
    -------------------------------------------------------------------------
RCODE
  Relative segment, address: 00000A09 - 00000A27 (0x1f bytes), align: 0
  Segment part 2.
           ENTRY                   ADDRESS         REF BY
           =====                   =======         ======
           ?L_NEG_L03              00000A09        __iar_Stolx (?xstol)
                                                   __iar_Stoulx (?xstoul)

    -------------------------------------------------------------------------
  LIBRARY MODULE, NAME : ?LONG_NOT_L03

  SEGMENTS IN THE MODULE
  ======================
__aseg
  Relative segment, address: 00000000, align: 0
  Segment part 1. ROOT 
    -------------------------------------------------------------------------
RCODE
  Relative segment, address: 00000A28 - 00000A40 (0x19 bytes), align: 0
  Segment part 2.
           ENTRY                   ADDRESS         REF BY
           =====                   =======         ======
           ?L_NOT_L03              00000A28        NVSettingsChecksum (NVSettings)

    -------------------------------------------------------------------------
  LIBRARY MODULE, NAME : ?XLOAD_A_FROM_STACK_L06

  SEGMENTS IN THE MODULE
  ======================
__aseg
  Relative segment, address: 00000000, align: 0
  Segment part 1. ROOT 

    -------------------------------------------------------------------------
  LIBRARY MODULE, NAME : ?XLOAD_AX_FROM_STACK_L06

  SEGMENTS IN THE MODULE
  ======================
__aseg
  Relative segment, address: 00000000, align: 0
  Segment part 1. ROOT 

    -------------------------------------------------------------------------
  LIBRARY MODULE, NAME : ?FUNCTION_LEAVE_L06

  SEGMENTS IN THE MODULE
  ======================
__aseg
  Relative segment, address: 00000000, align: 0
  Segment part 1. ROOT 
    -------------------------------------------------------------------------
RCODE
  Relative segment, address: 00000A41 - 00000A68 (0x28 bytes), align: 0
  Segment part 2.
           ENTRY                   ADDRESS         REF BY
           =====                   =======         ======
           ?0EFUNC_LEAVE_L06       00000A68 
           ?0SFUNC_LEAVE_L06       00000A41 
           ?1SFUNC_LEAVE_L06       00000A58 
           ?FUNC_LEAVE_L06         00000A41        ?Subroutine4 (glyph)
                                                   AtLibGs_GetWebProvSettings (AtCmdLib)
                                                   AtLibGs_RegisterMDNSService (AtCmdLib)
                                                   AtLib_GSLinkGetPostResp (AtCmdLib)
                                                   AtLib_GSLinkSend3Value (AtCmdLib)
                                                   AtLib_GSLinkSendValue (AtCmdLib)
                                                   RL78G14RDK_UART_Start (UART)
                                                   SPI_SendReceive (RDKRL78_spi)
                                                   SPI_Transfer (SPI _G14)
                                                   Segment part 15 (?xprintflarge)
                                                   _GenldLarge (?xprintflarge)
                                                   __iar_Stolx (?xstol)
                                                   __iar_Stoulx (?xstoul)
                                                   init_socket (mqtt)
                                                   mqtt_addIntValToMsg (mqtt)
                                                   mqtt_addStringValToMsg (mqtt)
                                                   mqtt_publish (mqtt)
                                                   mqtt_publish_with_qos (mqtt)

    -------------------------------------------------------------------------
  LIBRARY MODULE, NAME : ?MOVE_LONG_OBJECT_L06

  SEGMENTS IN THE MODULE
  ======================
__aseg
  Relative segment, address: 00000000, align: 0
  Segment part 1. ROOT 
    -------------------------------------------------------------------------
RCODE
  Relative segment, address: 00000A69 - 00000A98 (0x30 bytes), align: 0
  Segment part 2.
           ENTRY                   ADDRESS         REF BY
           =====                   =======         ======
           ?0EMOVE_LONG_L06        00000A98 
           ?0SMOVE_LONG_L06        00000A69 
           ?1SMOVE_LONG_L06        00000A79 
           ?2SMOVE_LONG_L06        00000A86 
           ?3SMOVE_LONG_L06        00000A8A 
           ?4SMOVE_LONG_L06        00000A96 
           ?MOVE_LONG_L06          00000A69        AtLibGs_ParseGetMacResponse (AtCmdLib)
                                                   LoadInt (?xprintflarge)
                                                   ST7579_SetLine (ST7579_LCD)
                                                   _LitobLarge (?xprintflarge)
                                                   _PrintfLarge (?xprintflarge)

    -------------------------------------------------------------------------
  LIBRARY MODULE, NAME : ?STRCMP_NEAR

  SEGMENTS IN THE MODULE
  ======================
__aseg
  Relative segment, address: 00000000, align: 0
  Segment part 1. ROOT 
    -------------------------------------------------------------------------
RCODE
  Relative segment, address: 00000A99 - 00000AAD (0x15 bytes), align: 0
  Segment part 2.
           ENTRY                   ADDRESS         REF BY
           =====                   =======         ======
           ?STRCMP_NEAR            00000A99        AtLibGs_GetWebProvSettings (AtCmdLib)
                                                   AtLibGs_ReceiveDataProcess (AtCmdLib)

    -------------------------------------------------------------------------
  LIBRARY MODULE, NAME : ?LONG_FLOAT_DEALLOC_L06

  SEGMENTS IN THE MODULE
  ======================
__aseg
  Relative segment, address: 00000000, align: 0
  Segment part 1. ROOT 
    -------------------------------------------------------------------------
RCODE
  Relative segment, address: 00000AAE - 00000ABC (0xf bytes), align: 0
  Segment part 3.
           ENTRY                   ADDRESS         REF BY
           =====                   =======         ======
           ?0EL_F_DEALLOC_L06      00000ABC 
           ?0EL_F_DEALLOC_STAT_L06
                                   00000ABC 
           ?0SL_F_DEALLOC_STAT_L06
                                   00000AAE 
           ?L_F_DEALLOC_STAT_L06   00000AAE        ?UL_CMP_L03 (?ULONG_CMP_L03)

    -------------------------------------------------------------------------
  LIBRARY MODULE, NAME : ?WRKSEG_DEFINE_L09

  SEGMENTS IN THE MODULE
  ======================
__aseg
  Relative segment, address: 00000000, align: 0
  Segment part 1. ROOT 
    -------------------------------------------------------------------------
WRKSEG
  Relative segment, address: 000FFE20, align: 1
  Segment part 2.             Intra module refs:   __WRKSEG_0
           ENTRY                   ADDRESS         REF BY
           =====                   =======         ======
           ?WRKSEG_START           000FFE20        ?F_DIV (?FLOAT_DIV)
                                                   ?F_MUL (?FLOAT_MUL)
                                                   Segment part 2 (?FLOAT_2_SIGNED_LONG)
                                                   Segment part 2 (?FLOAT_ADD_SUB)
                                                   Segment part 2 (?LL_DIVU_FAST)
    -------------------------------------------------------------------------
WRKSEG
  Relative segment, address: 000FFE20 - 000FFE20 (0x1 bytes), align: 0
  Segment part 3.             Intra module refs:   __WRKSEG_1
           ENTRY                   ADDRESS         REF BY
           =====                   =======         ======
           __WRKSEG_0              000FFE20 
    -------------------------------------------------------------------------
WRKSEG
  Relative segment, address: 000FFE21 - 000FFE21 (0x1 bytes), align: 0
  Segment part 4.             Intra module refs:   __WRKSEG_2
           ENTRY                   ADDRESS         REF BY
           =====                   =======         ======
           __WRKSEG_1              000FFE21        Segment part 2 (?FLOAT_2_SIGNED_LONG)
                                                   Segment part 2 (?FLOAT_ADD_SUB)
    -------------------------------------------------------------------------
WRKSEG
  Relative segment, address: 000FFE22 - 000FFE22 (0x1 bytes), align: 0
  Segment part 5.             Intra module refs:   __WRKSEG_3
           ENTRY                   ADDRESS         REF BY
           =====                   =======         ======
           __WRKSEG_2              000FFE22 
    -------------------------------------------------------------------------
WRKSEG
  Relative segment, address: 000FFE23 - 000FFE23 (0x1 bytes), align: 0
  Segment part 6.
           ENTRY                   ADDRESS         REF BY
           =====                   =======         ======
           __WRKSEG_3              000FFE23        ?F_DIV (?FLOAT_DIV)
                                                   ?F_MUL (?FLOAT_MUL)
                                                   Segment part 2 (?LL_DIVU_FAST)

    -------------------------------------------------------------------------
  LIBRARY MODULE, NAME : ?CHAR_SSWITCH_L10

  SEGMENTS IN THE MODULE
  ======================
__aseg
  Relative segment, address: 00000000, align: 0
  Segment part 1. ROOT 
    -------------------------------------------------------------------------
RCODE
  Relative segment, address: 00000ABD - 00000AD3 (0x17 bytes), align: 0
  Segment part 2.
           ENTRY                   ADDRESS         REF BY
           =====                   =======         ======
           ?0EC_SSWITCH_L10        00000AD2 
           ?0SC_SSWITCH_L10        00000ABD 
           ?1EC_SSWITCH_L10        00000AD4 
           ?1SC_SSWITCH_L10        00000ACB 
           ?C_SSWITCH_L10          00000ABD        ST7579_SetSystemBiasBooster (ST7579_LCD)

    -------------------------------------------------------------------------
  LIBRARY MODULE, NAME : ?INT_SSWITCH_L10

  SEGMENTS IN THE MODULE
  ======================
__aseg
  Relative segment, address: 00000000, align: 0
  Segment part 1. ROOT 
    -------------------------------------------------------------------------
RCODE
  Relative segment, address: 00000AD4 - 00000AF4 (0x21 bytes), align: 0
  Segment part 2.
           ENTRY                   ADDRESS         REF BY
           =====                   =======         ======
           ?0EI_SSWITCH_L10        00000AF3 
           ?0SI_SSWITCH_L10        00000AD4 
           ?1EI_SSWITCH_L10        00000AF5 
           ?1SI_SSWITCH_L10        00000AE5 
           ?2SI_SSWITCH_L10        00000AEC 
           ?I_SSWITCH_L10          00000AD4        ST7579_Read (ST7579_LCD)
                                                   ST7579_Write (ST7579_LCD)

    -------------------------------------------------------------------------
  LIBRARY MODULE, NAME : ?MEMCPY_NEAR

  SEGMENTS IN THE MODULE
  ======================
__aseg
  Relative segment, address: 00000000, align: 0
  Segment part 1. ROOT 
    -------------------------------------------------------------------------
RCODE
  Relative segment, address: 00000AF5 - 00000AFE (0xa bytes), align: 0
  Segment part 2.
           ENTRY                   ADDRESS         REF BY
           =====                   =======         ======
           ?MEMCPY_NEAR            00000AFB        _GenldLarge (?xprintflarge)
                                                   mqtt_connect (mqtt)
                                                   mqtt_publish_with_qos (mqtt)

    -------------------------------------------------------------------------
  LIBRARY MODULE, NAME : ?MEMCPY_SMALL_NEAR

  SEGMENTS IN THE MODULE
  ======================
__aseg
  Relative segment, address: 00000000, align: 0
  Segment part 1. ROOT 
    -------------------------------------------------------------------------
RCODE
  Relative segment, address: 00000AFF - 00000B06 (0x8 bytes), align: 0
  Segment part 2.
           ENTRY                   ADDRESS         REF BY
           =====                   =======         ======
           ?MEMCPY_SMALL_NEAR      00000AFF        App_WhiskerGW (App_WhiskerGW)
                                                   AtLibGs_ParseGetMacResponse (AtCmdLib)
                                                   _LdtobLarge (?xprintflarge)
                                                   mqtt_connect (mqtt)

    -------------------------------------------------------------------------
  LIBRARY MODULE, NAME : ?STR_CPY_NEAR

  SEGMENTS IN THE MODULE
  ======================
__aseg
  Relative segment, address: 00000000, align: 0
  Segment part 1. ROOT 
    -------------------------------------------------------------------------
RCODE
  Relative segment, address: 00000B07 - 00000B10 (0xa bytes), align: 0
  Segment part 2.
           ENTRY                   ADDRESS         REF BY
           =====                   =======         ======
           ?STR_CPY_NEAR           00000B07        App_WebProvisioning_OverAirPush (App_Startup)
                                                   AtLibGs_GetMAC (AtCmdLib)
                                                   AtLibGs_ParseDNSLookupResponse (AtCmdLib)
                                                   NVSettingsInit (NVSettings)
                                                   mqtt_init (mqtt)

    -------------------------------------------------------------------------
  LIBRARY MODULE, NAME : ?CAST_LLU2L

  SEGMENTS IN THE MODULE
  ======================
__aseg
  Relative segment, address: 00000000, align: 0
  Segment part 1. ROOT 
    -------------------------------------------------------------------------
RCODE
  Relative segment, address: 00000B11 - 00000B16 (0x6 bytes), align: 0
  Segment part 2.
           ENTRY                   ADDRESS         REF BY
           =====                   =======         ======
           _LLS2L                  00000B11 
           _LLU2L                  00000B11        _LitobLarge (?xprintflarge)
                                                   _PrintfLarge (?xprintflarge)

    -------------------------------------------------------------------------
  LIBRARY MODULE, NAME : ?LL_CASTU

  SEGMENTS IN THE MODULE
  ======================
__aseg
  Relative segment, address: 00000000, align: 0
  Segment part 1. ROOT 
    -------------------------------------------------------------------------
RCODE
  Relative segment, address: 00000B17 - 00000B22 (0xc bytes), align: 0
  Segment part 2.
           ENTRY                   ADDRESS         REF BY
           =====                   =======         ======
           _L2LLU                  00000B17        LoadInt (?xprintflarge)
                                                   _PrintfLarge (?xprintflarge)

    -------------------------------------------------------------------------
  LIBRARY MODULE, NAME : ?LL_CASTS

  SEGMENTS IN THE MODULE
  ======================
__aseg
  Relative segment, address: 00000000, align: 0
  Segment part 1. ROOT 
    -------------------------------------------------------------------------
RCODE
  Relative segment, address: 00000B23 - 00000B30 (0xe bytes), align: 0
  Segment part 2.
           ENTRY                   ADDRESS         REF BY
           =====                   =======         ======
           _L2LLS                  00000B23        LoadInt (?xprintflarge)
                                                   _LitobLarge (?xprintflarge)
                                                   _PrintfLarge (?xprintflarge)
    -------------------------------------------------------------------------
RCODE
  Relative segment, address: 00000B31 - 00000B3B (0xb bytes), align: 0
  Segment part 3.             Intra module refs:   _L2LLS
           ENTRY                   ADDRESS         REF BY
           =====                   =======         ======
           ?L2LL_RET               00000B31        _L2LLU (?LL_CASTU)

    -------------------------------------------------------------------------
  LIBRARY MODULE, NAME : ?LL_EXIT

  SEGMENTS IN THE MODULE
  ======================
__aseg
  Relative segment, address: 00000000, align: 0
  Segment part 1. ROOT 
    -------------------------------------------------------------------------
RCODE
  Relative segment, address: 00000B3C - 00000B4B (0x10 bytes), align: 0
  Segment part 2.
           ENTRY                   ADDRESS         REF BY
           =====                   =======         ======
           _ExitBin64              00000B3C        _And64 (?LL_AND)
                                                   _Neg64 (?LL_NEG)

    -------------------------------------------------------------------------
  LIBRARY MODULE, NAME : ?LL_DIVU_FAST

  SEGMENTS IN THE MODULE
  ======================
__aseg
  Relative segment, address: 00000000, align: 0
  Segment part 1. ROOT 
    -------------------------------------------------------------------------
RCODE
  Relative segment, address: 00000B4C - 00000CE4 (0x199 bytes), align: 0
  Segment part 2.
           ENTRY                   ADDRESS         REF BY
           =====                   =======         ======
           _Divu64                 00000B51        _LitobLarge (?xprintflarge)
           _Modu64                 00000B4C        _LitobLarge (?xprintflarge)

    -------------------------------------------------------------------------
  LIBRARY MODULE, NAME : ?LL_AND

  SEGMENTS IN THE MODULE
  ======================
__aseg
  Relative segment, address: 00000000, align: 0
  Segment part 1. ROOT 
    -------------------------------------------------------------------------
RCODE
  Relative segment, address: 00000CE5 - 00000D0F (0x2b bytes), align: 0
  Segment part 2.
           ENTRY                   ADDRESS         REF BY
           =====                   =======         ======
           _And64                  00000CE5        _PrintfLarge (?xprintflarge)

    -------------------------------------------------------------------------
  LIBRARY MODULE, NAME : ?LL_NEG

  SEGMENTS IN THE MODULE
  ======================
__aseg
  Relative segment, address: 00000000, align: 0
  Segment part 1. ROOT 
    -------------------------------------------------------------------------
RCODE
  Relative segment, address: 00000D10 - 00000D31 (0x22 bytes), align: 0
  Segment part 2.
           ENTRY                   ADDRESS         REF BY
           =====                   =======         ======
           _Neg64                  00000D10        _LitobLarge (?xprintflarge)

    -------------------------------------------------------------------------
  LIBRARY MODULE, NAME : ?LL_CMP

  SEGMENTS IN THE MODULE
  ======================
__aseg
  Relative segment, address: 00000000, align: 0
  Segment part 1. ROOT 
    -------------------------------------------------------------------------
RCODE
  Relative segment, address: 00000D32 - 00000D44 (0x13 bytes), align: 0
  Segment part 2.             Intra module refs:   _CmpGes64
           ENTRY                   ADDRESS         REF BY
           =====                   =======         ======
           _Cmp64s                 00000D32 
    -------------------------------------------------------------------------
RCODE
  Relative segment, address: 00000D45 - 00000D63 (0x1f bytes), align: 0
  Segment part 3.             Intra module refs:   _Cmp64s
                                                   _CmpEq64
                                                   _CmpNe64
           ENTRY                   ADDRESS         REF BY
           =====                   =======         ======
           _Cmp64u                 00000D45 
    -------------------------------------------------------------------------
RCODE
  Relative segment, address: 00000D64 - 00000D6B (0x8 bytes), align: 0
  Segment part 4.
           ENTRY                   ADDRESS         REF BY
           =====                   =======         ======
           _CmpEq64                00000D64        _LitobLarge (?xprintflarge)
                                                   _PrintfLarge (?xprintflarge)
    -------------------------------------------------------------------------
RCODE
  Relative segment, address: 00000D6C - 00000D73 (0x8 bytes), align: 0
  Segment part 5.
           ENTRY                   ADDRESS         REF BY
           =====                   =======         ======
           _CmpNe64                00000D6C        _LitobLarge (?xprintflarge)
    -------------------------------------------------------------------------
RCODE
  Relative segment, address: 00000D74 - 00000D7B (0x8 bytes), align: 0
  Segment part 7.
           ENTRY                   ADDRESS         REF BY
           =====                   =======         ======
           _CmpGes64               00000D74        _LitobLarge (?xprintflarge)
                                                   _PrintfLarge (?xprintflarge)

    -------------------------------------------------------------------------
  LIBRARY MODULE, NAME : ?memchr

  SEGMENTS IN THE MODULE
  ======================
CODE
  Relative segment, address: 0000A19C - 0000A1B0 (0x15 bytes), align: 0
  Segment part 3.
           ENTRY                   ADDRESS         REF BY
           =====                   =======         ======
           __iar_Memchr            0000A19C        _PrintfLarge (?xprintflarge)
                                                   __iar_Stoulx (?xstoul)

    -------------------------------------------------------------------------
  LIBRARY MODULE, NAME : ?memset

  SEGMENTS IN THE MODULE
  ======================
CODE
  Relative segment, address: 0000A1B1 - 0000A1C5 (0x15 bytes), align: 0
  Segment part 2.
           ENTRY                   ADDRESS         REF BY
           =====                   =======         ======
           memset                  0000A1B1        AtLibGs_FlushRxBuffer (AtCmdLib)
                                                   NVSettingsInit (NVSettings)
                                                   mqtt_connect (mqtt)
                                                   mqtt_init (mqtt)
                                                   mqtt_publish_with_qos (mqtt)

    -------------------------------------------------------------------------
  LIBRARY MODULE, NAME : ?sprintf

  SEGMENTS IN THE MODULE
  ======================
CODE
  Relative segment, address: 0000A1C6 - 0000A1FC (0x37 bytes), align: 0
  Segment part 2.
           ENTRY                   ADDRESS         REF BY
           =====                   =======         ======
           sprintf                 0000A1C6        App_WhiskerGW (App_WhiskerGW)
                                                   AtLibGs_Assoc (AtCmdLib)
                                                   AtLibGs_CalcNStorePSK (AtCmdLib)
                                                   AtLibGs_ConfigAntenna (AtCmdLib)
                                                   AtLibGs_DHCPSet (AtCmdLib)
                                                   AtLibGs_DNSLookup (AtCmdLib)
                                                   AtLibGs_EnableRadio (AtCmdLib)
                                                   AtLibGs_IPSet (AtCmdLib)
                                                   AtLibGs_Mode (AtCmdLib)
                                                   AtLibGs_RegisterMDNSHost (AtCmdLib)
                                                   AtLibGs_RegisterMDNSService (AtCmdLib)
                                                   AtLibGs_SendTCPData (AtCmdLib)
                                                   AtLibGs_SetAuthentictionMode (AtCmdLib)
                                                   AtLibGs_SetEcho (AtCmdLib)
                                                   AtLibGs_SetSecurity (AtCmdLib)
                                                   AtLibGs_SetWEP1 (AtCmdLib)
                                                   AtLibGs_TCPClientStart (AtCmdLib)
                                                   AtLibGs_WebProv (AtCmdLib)
                                                   AtLib_ConvertNumberTo4DigitASCII (AtCmdLib)
                                                   AtLib_GSLinkGetPostResp (AtCmdLib)
                                                   AtLib_GSLinkPostDoneAck (AtCmdLib)
                                                   AtLib_GSLinkSend3Value (AtCmdLib)
                                                   AtLib_GSLinkSendTempValue (AtCmdLib)
                                                   AtLib_GSLinkSendValue (AtCmdLib)
                                                   RSSIReading (App_WhiskerGW)
                                                   init_socket (mqtt)
                                                   mqtt_addIntValToMsg (mqtt)
                                                   mqtt_addStringValToMsg (mqtt)
                                                   mqtt_finishJsonMsg (mqtt)
                                                   mqtt_initJsonMsg (mqtt)
               calls direct
               CSTACK = 00000000 ( 0000000A )

    -------------------------------------------------------------------------
  LIBRARY MODULE, NAME : ?strcat

  SEGMENTS IN THE MODULE
  ======================
CODE
  Relative segment, address: 0000A1FD - 0000A217 (0x1b bytes), align: 0
  Segment part 2.
           ENTRY                   ADDRESS         REF BY
           =====                   =======         ======
           strcat                  0000A1FD        App_WebProvisioning_OverAirPush (App_Startup)
               CSTACK = 00000000 ( 00000004 )

    -------------------------------------------------------------------------
  LIBRARY MODULE, NAME : ?strchr

  SEGMENTS IN THE MODULE
  ======================
CODE
  Relative segment, address: 0000A218 - 0000A227 (0x10 bytes), align: 0
  Segment part 3.
           ENTRY                   ADDRESS         REF BY
           =====                   =======         ======
           __iar_Strchr            0000A218        _PrintfLarge (?xprintflarge)
                                                   strchr (AtCmdLib)

    -------------------------------------------------------------------------
  LIBRARY MODULE, NAME : ?strlen

  SEGMENTS IN THE MODULE
  ======================
CODE
  Relative segment, address: 0000A228 - 0000A235 (0xe bytes), align: 0
  Segment part 2.
           ENTRY                   ADDRESS         REF BY
           =====                   =======         ======
           strlen                  0000A228        App_WhiskerGW (App_WhiskerGW)
                                                   AtLibGs_CommandSendString (AtCmdLib)
                                                   AtLib_GSLinkGetPostResp (AtCmdLib)
                                                   AtLib_GSLinkPostDoneAck (AtCmdLib)
                                                   AtLib_GSLinkSend3Value (AtCmdLib)
                                                   AtLib_GSLinkSendTempValue (AtCmdLib)
                                                   AtLib_GSLinkSendValue (AtCmdLib)
                                                   DisplayLCD (lcd)
                                                   WIFI_Associate (App_WhiskerGW)
                                                   WIFI_init (App_WhiskerGW)
                                                   _PrintfLarge (?xprintflarge)
                                                   mqtt_addIntValToMsg (mqtt)
                                                   mqtt_addStringValToMsg (mqtt)
                                                   mqtt_connect (mqtt)
                                                   mqtt_finishJsonMsg (mqtt)
                                                   mqtt_publish_with_qos (mqtt)
                                                   strrev (AtCmdLib)
               CSTACK = 00000000 ( 00000002 )

    -------------------------------------------------------------------------
  LIBRARY MODULE, NAME : ?strncmp

  SEGMENTS IN THE MODULE
  ======================
CODE
  Relative segment, address: 0000A236 - 0000A268 (0x33 bytes), align: 0
  Segment part 2.
           ENTRY                   ADDRESS         REF BY
           =====                   =======         ======
           strncmp                 0000A236        AtLibGs_GetWebProvSettings (AtCmdLib)
               CSTACK = 00000000 ( 00000004 )

    -------------------------------------------------------------------------
  LIBRARY MODULE, NAME : ?strncpy

  SEGMENTS IN THE MODULE
  ======================
CODE
  Relative segment, address: 0000A269 - 0000A28F (0x27 bytes), align: 0
  Segment part 2.
           ENTRY                   ADDRESS         REF BY
           =====                   =======         ======
           strncpy                 0000A269        AtLibGs_GetWebProvSettings (AtCmdLib)
                                                   mqtt_init (mqtt)
                                                   mqtt_init_auth (mqtt)
               CSTACK = 00000000 ( 00000002 )

    -------------------------------------------------------------------------
  LIBRARY MODULE, NAME : ?strstr

  SEGMENTS IN THE MODULE
  ======================
CODE
  Relative segment, address: 0000A290 - 0000A2D1 (0x42 bytes), align: 0
  Segment part 3.
           ENTRY                   ADDRESS         REF BY
           =====                   =======         ======
           __iar_Strstr            0000A290        strstr (App_Startup)
               CSTACK = 00000000 ( 00000006 )

    -------------------------------------------------------------------------
  LIBRARY MODULE, NAME : ?strtol

  SEGMENTS IN THE MODULE
  ======================
CODE
  Relative segment, address: 0000A2D2 - 0000A2DC (0xb bytes), align: 0
  Segment part 2.
           ENTRY                   ADDRESS         REF BY
           =====                   =======         ======
           strtol                  0000A2D2        App_WhiskerGW (App_WhiskerGW)
               calls direct
               CSTACK = 00000000 ( 00000004 )

    -------------------------------------------------------------------------
  LIBRARY MODULE, NAME : ?strtoul

  SEGMENTS IN THE MODULE
  ======================
CODE
  Relative segment, address: 0000A2DD - 0000A2E3 (0x7 bytes), align: 0
  Segment part 2.
           ENTRY                   ADDRESS         REF BY
           =====                   =======         ======
           strtoul                 0000A2DD        App_WhiskerGW (App_WhiskerGW)
               calls direct
               CSTACK = 00000000 ( 00000002 )

    -------------------------------------------------------------------------
  LIBRARY MODULE, NAME : ?xdnorm

  SEGMENTS IN THE MODULE
  ======================
CODE
  Relative segment, address: 0000A2E4 - 0000A33D (0x5a bytes), align: 0
  Segment part 2.
           ENTRY                   ADDRESS         REF BY
           =====                   =======         ======
           __iar_Dnorm             0000A2E4        __iar_Dunscale (?xdunscal)
               CSTACK = 00000000 ( 0000000A )

    -------------------------------------------------------------------------
  LIBRARY MODULE, NAME : ?xdunscal

  SEGMENTS IN THE MODULE
  ======================
CODE
  Relative segment, address: 0000A33E - 0000A393 (0x56 bytes), align: 0
  Segment part 2.
           ENTRY                   ADDRESS         REF BY
           =====                   =======         ======
           __iar_Dunscale          0000A33E        _LdtobLarge (?xprintflarge)
               calls direct
               CSTACK = 00000000 ( 00000006 )

    -------------------------------------------------------------------------
  LIBRARY MODULE, NAME : ?xprintflarge

  SEGMENTS IN THE MODULE
  ======================
CODE
  Relative segment, address: 0000A394 - 0000A943 (0x5b0 bytes), align: 0
  Segment part 14.
           ENTRY                   ADDRESS         REF BY
           =====                   =======         ======
           _PrintfLarge            0000A394        sprintf (?sprintf)
               calls direct
               CSTACK = 00000002 ( 00000074 )
    -------------------------------------------------------------------------
CODE
  Relative segment, address: 0000A944 - 0000A948 (0x5 bytes), align: 0
  Segment part 15.            Intra module refs:   _PrintfLarge
                                                   _PutcharsLarge
                                                   pad
    -------------------------------------------------------------------------
CODE
  Relative segment, address: 0000A949 - 0000A94D (0x5 bytes), align: 0
  Segment part 16.            Intra module refs:   _PrintfLarge
    -------------------------------------------------------------------------
CODE
  Relative segment, address: 0000A94E - 0000A953 (0x6 bytes), align: 0
  Segment part 17.            Intra module refs:   _PrintfLarge
    -------------------------------------------------------------------------
CODE
  Relative segment, address: 0000A954 - 0000A95A (0x7 bytes), align: 0
  Segment part 18.            Intra module refs:   _PrintfLarge
    -------------------------------------------------------------------------
CODE
  Relative segment, address: 0000A95B - 0000A960 (0x6 bytes), align: 0
  Segment part 19.            Intra module refs:   _PrintfLarge
    -------------------------------------------------------------------------
CODE
  Relative segment, address: 0000A961 - 0000A965 (0x5 bytes), align: 0
  Segment part 20.            Intra module refs:   _PrintfLarge
    -------------------------------------------------------------------------
CODE
  Relative segment, address: 0000A966 - 0000A9E0 (0x7b bytes), align: 0
  Segment part 21.            Intra module refs:   _PrintfLarge
           LOCAL                   ADDRESS         
           =====                   =======         
           LoadInt                 0000A966 
               calls direct
               CSTACK = 00000000 ( 00000010 )
    -------------------------------------------------------------------------
CODE
  Relative segment, address: 0000A9E1 - 0000A9E7 (0x7 bytes), align: 0
  Segment part 22.            Intra module refs:   LoadInt
    -------------------------------------------------------------------------
CODE
  Relative segment, address: 0000A9E8 - 0000AA17 (0x30 bytes), align: 0
  Segment part 23.            Intra module refs:   _PrintfLarge
           LOCAL                   ADDRESS         
           =====                   =======         
           pad                     0000A9E8 
               calls direct
               CSTACK = 00000002 ( 0000000A )
    -------------------------------------------------------------------------
CODE
  Relative segment, address: 0000AA18 - 0000ABE3 (0x1cc bytes), align: 0
  Segment part 24.            Intra module refs:   _PrintfLarge
           LOCAL                   ADDRESS         
           =====                   =======         
           _LitobLarge             0000AA18 
               calls direct
               CSTACK = 00000000 ( 0000002C )
    -------------------------------------------------------------------------
CODE
  Relative segment, address: 0000ABE4 - 0000ABEB (0x8 bytes), align: 0
  Segment part 25.            Intra module refs:   _LitobLarge
    -------------------------------------------------------------------------
CODE
  Relative segment, address: 0000ABEC - 0000AC3F (0x54 bytes), align: 0
  Segment part 26.            Intra module refs:   _LdtobLarge
           LOCAL                   ADDRESS         
           =====                   =======         
           scale                   0000ABEC 
               CSTACK = 00000000 ( 0000000E )
    -------------------------------------------------------------------------
CODE
  Relative segment, address: 0000AC40 - 0000AEA5 (0x266 bytes), align: 0
  Segment part 27.            Intra module refs:   _PrintfLarge
           LOCAL                   ADDRESS         
           =====                   =======         
           _LdtobLarge             0000AC40 
               calls direct
               CSTACK = 00000000 ( 0000004C )
    -------------------------------------------------------------------------
CODE
  Relative segment, address: 0000AEA6 - 0000AEAB (0x6 bytes), align: 0
  Segment part 28.            Intra module refs:   _GenldLarge
                                                   _LdtobLarge
                                                   _LitobLarge
    -------------------------------------------------------------------------
CODE
  Relative segment, address: 0000AEAC - 0000AEB2 (0x7 bytes), align: 0
  Segment part 29.            Intra module refs:   _GenldLarge
                                                   _LdtobLarge
                                                   _PrintfLarge
    -------------------------------------------------------------------------
CODE
  Relative segment, address: 0000AEB3 - 0000B24B (0x399 bytes), align: 0
  Segment part 30.            Intra module refs:   _LdtobLarge
           LOCAL                   ADDRESS         
           =====                   =======         
           _GenldLarge             0000AEB3 
               calls direct
               CSTACK = 00000004 ( 00000020 )
    -------------------------------------------------------------------------
CODE
  Relative segment, address: 0000B24C - 0000B24C (0x1 bytes), align: 0
  Segment part 31.            Intra module refs:   _GenldLarge
                                                   _LitobLarge
    -------------------------------------------------------------------------
CODE
  Relative segment, address: 0000B24D - 0000B251 (0x5 bytes), align: 0
  Segment part 32.            Intra module refs:   Segment part 31
                                                   _GenldLarge
                                                   _LitobLarge
    -------------------------------------------------------------------------
CODE
  Relative segment, address: 0000B252 - 0000B25A (0x9 bytes), align: 0
  Segment part 33.            Intra module refs:   _GenldLarge
    -------------------------------------------------------------------------
CODE
  Relative segment, address: 0000B25B - 0000B263 (0x9 bytes), align: 0
  Segment part 34.            Intra module refs:   _GenldLarge
    -------------------------------------------------------------------------
CODE
  Relative segment, address: 0000B264 - 0000B286 (0x23 bytes), align: 0
  Segment part 35.            Intra module refs:   _PrintfLarge
                                                   _PutcharsLarge
           LOCAL                   ADDRESS         
           =====                   =======         
           _PutcharLarge           0000B264 
               calls indirect
               CSTACK = 00000000 ( 00000004 )
    -------------------------------------------------------------------------
CODE
  Relative segment, address: 0000B287 - 0000B2B4 (0x2e bytes), align: 0
  Segment part 36.            Intra module refs:   _PrintfLarge
                                                   pad
           LOCAL                   ADDRESS         
           =====                   =======         
           _PutcharsLarge          0000B287 
               calls direct
               CSTACK = 00000002 ( 00000006 )
    -------------------------------------------------------------------------
NEAR_ID
  Relative segment, address: 0000B6CE - 0000B6D5 (0x8 bytes), align: 1
  Segment part 3.             Intra module refs:   Segment part 2
    -------------------------------------------------------------------------
NEAR_ID
  Relative segment, address: 0000B6D6 - 0000B6D9 (0x4 bytes), align: 1
  Segment part 5.             Intra module refs:   Segment part 4
    -------------------------------------------------------------------------
NEAR_ID
  Relative segment, address: 0000B6DA - 0000B6DD (0x4 bytes), align: 1
  Segment part 7.             Intra module refs:   Segment part 6
    -------------------------------------------------------------------------
NEAR_ID
  Relative segment, address: 0000B6DE - 0000B6E1 (0x4 bytes), align: 1
  Segment part 9.             Intra module refs:   Segment part 8
    -------------------------------------------------------------------------
NEAR_ID
  Relative segment, address: 0000B6E2 - 0000B6E5 (0x4 bytes), align: 1
  Segment part 11.            Intra module refs:   Segment part 10
    -------------------------------------------------------------------------
NEAR_ID
  Relative segment, address: 0000B6E6 - 0000B6E7 (0x2 bytes), align: 1
  Segment part 13.            Intra module refs:   Segment part 12
    -------------------------------------------------------------------------
NEAR_I
  Relative segment, address: 000F9FD8 - 000F9FDF (0x8 bytes), align: 1
  Segment part 2.             Intra module refs:   _PrintfLarge
    -------------------------------------------------------------------------
NEAR_I
  Relative segment, address: 000F9FE0 - 000F9FE3 (0x4 bytes), align: 1
  Segment part 4.             Intra module refs:   _LdtobLarge
    -------------------------------------------------------------------------
NEAR_I
  Relative segment, address: 000F9FE4 - 000F9FE7 (0x4 bytes), align: 1
  Segment part 6.             Intra module refs:   _LdtobLarge
    -------------------------------------------------------------------------
NEAR_I
  Relative segment, address: 000F9FE8 - 000F9FEB (0x4 bytes), align: 1
  Segment part 8.             Intra module refs:   _LdtobLarge
    -------------------------------------------------------------------------
NEAR_I
  Relative segment, address: 000F9FEC - 000F9FEF (0x4 bytes), align: 1
  Segment part 10.            Intra module refs:   _LdtobLarge
    -------------------------------------------------------------------------
NEAR_I
  Relative segment, address: 000F9FF0 - 000F9FF1 (0x2 bytes), align: 1
  Segment part 12.            Intra module refs:   _GenldLarge

    -------------------------------------------------------------------------
  LIBRARY MODULE, NAME : ?xsprout

  SEGMENTS IN THE MODULE
  ======================
CODE
  Relative segment, address: 0000B2B5 - 0000B2C0 (0xc bytes), align: 0
  Segment part 2.
           ENTRY                   ADDRESS         REF BY
           =====                   =======         ======
           _SProut                 0000B2B5        sprintf (?sprintf)
               CSTACK = 00000000 ( 00000002 )

    -------------------------------------------------------------------------
  LIBRARY MODULE, NAME : ?xstol

  SEGMENTS IN THE MODULE
  ======================
CODE
  Relative segment, address: 0000B2C1 - 0000B394 (0xd4 bytes), align: 0
  Segment part 2.
           ENTRY                   ADDRESS         REF BY
           =====                   =======         ======
           __iar_Stolx             0000B2C1        strtol (?strtol)
               calls direct
               CSTACK = 00000002 ( 00000010 )

    -------------------------------------------------------------------------
  LIBRARY MODULE, NAME : ?xstoul

  SEGMENTS IN THE MODULE
  ======================
NEAR_I
  Relative segment, address: 000F9FF2 - 000FA017 (0x26 bytes), align: 1
  Segment part 2.             Intra module refs:   __iar_Stoulx
    -------------------------------------------------------------------------
NEAR_I
  Relative segment, address: 000FA018 - 000FA03D (0x26 bytes), align: 1
  Segment part 4.             Intra module refs:   __iar_Stoulx
    -------------------------------------------------------------------------
CODE
  Relative segment, address: 0000B395 - 0000B55B (0x1c7 bytes), align: 0
  Segment part 6.             Intra module refs:   __iar_Stoul
           ENTRY                   ADDRESS         REF BY
           =====                   =======         ======
           __iar_Stoulx            0000B395        __iar_Stolx (?xstol)
               calls direct
               CSTACK = 00000002 ( 0000001E )
    -------------------------------------------------------------------------
CODE
  Relative segment, address: 0000B55C - 0000B566 (0xb bytes), align: 0
  Segment part 7.
           ENTRY                   ADDRESS         REF BY
           =====                   =======         ======
           __iar_Stoul             0000B55C        atoi (?atoi)
                                                   strtoul (?strtoul)
               calls direct
               CSTACK = 00000000 ( 00000004 )
    -------------------------------------------------------------------------
NEAR_ID
  Relative segment, address: 0000B6E8 - 0000B70D (0x26 bytes), align: 1
  Segment part 3.             Intra module refs:   Segment part 2
    -------------------------------------------------------------------------
NEAR_ID
  Relative segment, address: 0000B70E - 0000B733 (0x26 bytes), align: 1
  Segment part 5.             Intra module refs:   Segment part 4

    -------------------------------------------------------------------------
  LIBRARY MODULE, NAME : ?__exit

  SEGMENTS IN THE MODULE
  ======================
CODE
  Relative segment, address: 0000B567 - 0000B568 (0x2 bytes), align: 0
  Segment part 2.
           ENTRY                   ADDRESS         REF BY
           =====                   =======         ======
           __exit                  0000B567        __iar_exit_end (?_exit)




                ****************************************
                *                                      *
                *            MODULE SUMMARY            *
                *                                      *
                ****************************************

Module                     CODE      DATA       CONST
------                     ----      ----       -----
                          (Rel)   (Rel)  (Abs)  (Rel)
?CAST_LLU2L                   6
?CHAR_SSWITCH_L10            23
?CSTARTUP                    47
  + common                    2
?FCMP_LT                     77
?FLOAT_2_SIGNED_LONG        107
?FLOAT_ADD_SUB              604
?FLOAT_DIV                  376
?FLOAT_MUL                  341
?FUNCTION_LEAVE_L06          40
?INT_LSH_L02                 11
?INT_SSWITCH_L10             33
?LL_AND                      43
?LL_CASTS                    25
?LL_CASTU                    12
?LL_CMP                      74
?LL_DIVU_FAST               409
?LL_EXIT                     16
?LL_NEG                      34
?LONG_FLOAT_DEALLOC_L06      15
?LONG_MUL_FAST_L03           35
?LONG_NEG_L03                31
?LONG_NOT_L03                25
?MEMCPY_NEAR                 10
?MEMCPY_SMALL_NEAR            8
?MOVE_LONG_OBJECT_L06        48
?SIGNED_LONG_2_FLOAT         85
?SINT_CMP_L02                12
?STRCMP_NEAR                 21
?STR_CPY_NEAR                10
?SUBN_ARG                    11
?ULONG_CMP_L03               29
?WRKSEG_DEFINE_L09                    4
?__INIT_NEAR_I               26
?__INIT_NEAR_Z               19
?__INIT_WRKSEG               11
?__MAIN_CALL                  6
?__exit                       2
?__low_level_init_stub        4
?_exit                        5
?atoi                        12
?div                         28
?errno                                2
?exit                         3
?memchr                      21
?memset                      21
?sprintf                     55
?strcat                      27
?strchr                      16
?strlen                      14
?strncmp                     51
?strncpy                     39
?strstr                      66
?strtol                      11
?strtoul                      7
?xdnorm                      90
?xdunscal                    86
?xprintflarge             3 873      26            26
?xsprout                     12
?xstol                      212
?xstoul                     466      76            76
ADC                          61              8
  + shared                   54             10
  + common
Accelerometer                         6
App_Startup                 833     618           460
  + shared                   15
App_WhiskerGW             2 874     857           685
AtCmdLib                  5 332   1 798         1 109
  + shared                   15
EEPROM                      527
GSHAL                       127   1 504
GainSpan_IO                  52
  + shared                                   1
GainSpan_SPI                678     401
I2C                         745      11      1
  + shared                   44              9
  + common
NVSettings                  289       6             6
Potentiometer                14
RDKRL78_spi                 276      16            16
SPI _G14                    981      59      4     26
  + common                   64
ST7579_LCD                2 049      10           150
Switch                       19
Temperature                  92       2             2
Timer                        76       2      2
  + common                   58
UART                      1 205     408      4
  + common                   42
__HWDIV_8_8_8                16
__HWMOD_8_8_8                18
__HWSDIV_16_16_16            67
__HWSDIV_32_32_32           173
__HWSMOD_16_16_16            65
__HWSMOD_32_32_32           181
__HWSxxx_32_32_32            23
eink_driver               1 386      40            14
  + shared                                   8
font_8x8                          3 072         3 072
font_logos                          674           674
font_x5x7                         1 528         1 528
glyph                       339      54
glyph_register              178
hwsetup                     118             11
lcd                         195       3             1
led                         361     127      7    112
  + shared                                   8
main                        146      32            26
mqtt                      1 630     593            74
mstimer                     153       4
r_cg_serial                 204       6     10
  + shared                                  72
r_cg_serial_user            112       2      2
  + common                   24
r_cg_timer                                  26
xr20m1170                   379
N/A (command line)                1 024
N/A (alignment)               4  -7 594
----------               ------   -----    ---  -----
Total:                   29 809   5 371    183  8 057
  + common                   64


                ****************************************
                *                                      *
                *      SEGMENTS IN ADDRESS ORDER       *
                *                                      *
                ****************************************


SEGMENT              SPACE    START ADDRESS   END ADDRESS     SIZE  TYPE  ALIGN
=======              =====    =============   ===========     ====  ====  =====
__aseg                                  00000000                     rel    0
INTVEC                             00000000 - 0000003F          40   com    1
OPTBYTE                            000000C0 - 000000C3           4   rel    0
SECUID                             000000C4 - 000000CD           A   rel    1
RCODE                              000000D8 - 00000D7B         CA4   rel    1
NEAR_CONST_ID                      00003000 - 00004DA9        1DAA   rel    1
CODE                               00004DAA - 0000B568        67BF   rel    0
SWITCH                             0000B56A - 0000B5F5          8C   rel    1
NEAR_ID                            0000B5F6 - 0000B738         143   rel    1
NEAR_A                             000F0010 - 000F0012           3   rel    0
                                   000F0060 - 000F0060           1 
                                   000F0070 - 000F0070           1 
                                   000F0077 - 000F0079           3 
                                   000F007B - 000F007B           1 
                                   000F00F0 - 000F00F0           1 
                                   000F00F3 - 000F00F3           1 
                                   000F0102 - 000F0103           2 
                                   000F0106 - 000F0107           2 
                                   000F010A - 000F010B           2 
                                   000F010E - 000F011F          12 
                                   000F0122 - 000F012B           A 
                                   000F0134 - 000F0135           2 
                                   000F0142 - 000F0143           2 
                                   000F0146 - 000F014B           6 
                                   000F014E - 000F0153           6 
                                   000F0156 - 000F015B           6 
                                   000F015E - 000F015F           2 
                                   000F0162 - 000F016B           A 
                                   000F0190 - 000F0195           6 
                                   000F01B2 - 000F01BF           E 
                                   000F0230 - 000F0234           5 
                                   000F02F0 - 000F02F0           1 
NEAR_CONST                         000F3000 - 000F4DA9        1DAA   rel    1
NEAR_I                             000F9F00 - 000FA042         143   rel    1
NEAR_Z                             000FA044 - 000FAFF7         FB4   rel    1
FAR_Z                                   000FAFF8                     rel    0
HUGE_Z                                  000FAFF8                     rel    0
CSTACK                             000FAFF8 - 000FB3F7         400   rel    1
WRKSEG                             000FFE20 - 000FFE23           4   rel    1
SADDR_A                            000FFF00 - 000FFF08           9   rel    0
                                   000FFF0A - 000FFF0A           1 
                                   000FFF0C - 000FFF13           8 
                                   000FFF16 - 000FFF1B           6 
                                   000FFF1E - 000FFF1F           2 
NEAR_A                             000FFF20 - 000FFF28           9   rel    0
                                   000FFF2A - 000FFF2A           1 
                                   000FFF2C - 000FFF2C           1 
                                   000FFF2E - 000FFF32           5 
                                   000FFF44 - 000FFF4B           8 
                                   000FFF50 - 000FFF52           3 
                                   000FFF64 - 000FFF65           2 
                                   000FFF90 - 000FFF91           2 
                                   000FFFA0 - 000FFFA4           5 
NEAR_A                             000FFFE0 - 000FFFEF          10   rel    0

                ****************************************
                *                                      *
                *        END OF CROSS REFERENCE        *
                *                                      *
                ****************************************

 29 873 bytes of CODE  memory
  5 371 bytes of DATA  memory (+ 183 absolute )
  8 057 bytes of CONST memory

Errors: none
Warnings: 8

